Component: ARM Compiler 5.06 update 6 (build 750) Tool: armlink [4d35ed]

==============================================================================

Section Cross References

    stm32f4xx_it.o(.text) refers to stm32f4xx_exti.o(.text) for EXTI_GetITStatus
    stm32f4xx_it.o(.text) refers to drv_rcin.o(.text) for PPM_IRQH
    stm32f4xx_it.o(.text) refers to drv_usart.o(.text) for Usart2_IRQ
    ano_usb.o(.text) refers to usbd_core.o(.text) for usbd_init
    ano_usb.o(.text) refers to usbd_hid.o(.text) for usbd_hid_get_report_trigger
    ano_usb.o(.text) refers to ano_dt.o(.text) for AnoDTRxOneByteUsb
    ano_usb.o(.text) refers to ano_usb.o(.data) for hid_datatemp_end
    ano_usb.o(.text) refers to ano_usb.o(.bss) for hid_datatemp
    usb_config.o(.text) refers to usbd_hid.o(.text) for USBD_HID_Configure_Event
    usb_config.o(.constdata) refers to usb_config.o(.text) for USBD_SOF_Event
    usb_config.o(.constdata) refers to usbd_core.o(.text) for USBD_EndPoint0
    usb_config.o(.constdata) refers to usbd_hid.o(.text) for USBD_HID_EP_INT_Event
    main.o(.text) refers to bsp_init.o(.text) for All_Init
    main.o(.text) refers to ano_scheduler.o(.text) for Scheduler_Setup
    main.o(.text) refers to ano_fcdata.o(.bss) for flag
    ano_scheduler.o(.text) refers to drv_time.o(.text) for GetSysTime_us
    ano_scheduler.o(.text) refers to ano_flightdatacal.o(.text) for Fc_Sensor_Get
    ano_scheduler.o(.text) refers to ano_sensor_basic.o(.text) for Sensor_Data_Prepare
    ano_scheduler.o(.text) refers to drv_gps.o(.text) for WCXY_Acc_Get_Task
    ano_scheduler.o(.text) refers to ano_flightctrl.o(.text) for Flight_State_Task
    ano_scheduler.o(.text) refers to ano_of_decofusion.o(.text) for ANO_OF_Data_Prepare_Task
    ano_scheduler.o(.text) refers to ano_dt.o(.text) for ANO_DT_Task1Ms
    ano_scheduler.o(.text) refers to ano_attctrl.o(.text) for Att_1level_Ctrl
    ano_scheduler.o(.text) refers to ano_motorctrl.o(.text) for Motor_Ctrl_Task
    ano_scheduler.o(.text) refers to ano_uwb.o(.text) for Ano_UWB_Get_Data_Task
    ano_scheduler.o(.text) refers to ano_imu.o(.text) for calculate_RPY
    ano_scheduler.o(.text) refers to drv_bsp.o(.text) for DrvRcInputTask
    ano_scheduler.o(.text) refers to ano_rc.o(.text) for RC_duty_task
    ano_scheduler.o(.text) refers to ano_altctrl.o(.text) for Alt_1level_Ctrl
    ano_scheduler.o(.text) refers to ano_of.o(.text) for AnoOF_Check_State
    ano_scheduler.o(.text) refers to drv_led.o(.text) for LED_Task2
    ano_scheduler.o(.text) refers to ano_imu_task.o(.text) for ImuServices_20ms_c
    ano_scheduler.o(.text) refers to ano_flyctrl.o(.text) for FlyCtrl_Task
    ano_scheduler.o(.text) refers to ano_locctrl.o(.text) for Loc_1level_Ctrl
    ano_scheduler.o(.text) refers to drv_openmv.o(.text) for OpenMV_Offline_Check
    ano_scheduler.o(.text) refers to ano_opmv_cbtracking_ctrl.o(.text) for ANO_CBTracking_Task
    ano_scheduler.o(.text) refers to ano_opmv_linetracking_ctrl.o(.text) for ANO_LTracking_Task
    ano_scheduler.o(.text) refers to ano_opmv_ctrl.o(.text) for ANO_OPMV_Ctrl_Task
    ano_scheduler.o(.text) refers to task1.o(.text) for search_A
    ano_scheduler.o(.text) refers to ano_power.o(.text) for Power_UpdateTask
    ano_scheduler.o(.text) refers to drv_heating.o(.text) for Thermostatic_Ctrl_Task
    ano_scheduler.o(.text) refers to ano_parameter.o(.text) for Ano_Parame_Write_task
    ano_scheduler.o(.text) refers to ano_scheduler.o(.bss) for test_dT_1000hz
    ano_scheduler.o(.text) refers to ano_rc.o(.bss) for CH_N
    ano_scheduler.o(.text) refers to ano_scheduler.o(.data) for sched_tasks
    ano_scheduler.o(.data) refers to ano_scheduler.o(.text) for Loop_1000Hz
    bsp_init.o(.text) refers to misc.o(.text) for NVIC_PriorityGroupConfig
    bsp_init.o(.text) refers to drv_time.o(.text) for SysTick_Configuration
    bsp_init.o(.text) refers to ultr.o(.text) for TIM4_CH1_Cap_Init
    bsp_init.o(.text) refers to drv_led.o(.text) for Drv_LED_Init
    bsp_init.o(.text) refers to drv_w25qxx.o(.text) for Flash_Init
    bsp_init.o(.text) refers to ano_fcdata.o(.text) for Para_Data_Init
    bsp_init.o(.text) refers to drv_bsp.o(.text) for DrvRcInputInit
    bsp_init.o(.text) refers to drv_pwm_out.o(.text) for PWM_Out_Init
    bsp_init.o(.text) refers to drv_spi.o(.text) for Drv_SPI2_init
    bsp_init.o(.text) refers to drv_ak8975.o(.text) for Drv_AK8975CSPin_Init
    bsp_init.o(.text) refers to drv_spl06.o(.text) for Drv_SPL06CSPin_Init
    bsp_init.o(.text) refers to drv_bmi088.o(.text) for DrvBmi088Init
    bsp_init.o(.text) refers to ano_usb.o(.text) for Usb_Hid_Init
    bsp_init.o(.text) refers to drv_usart.o(.text) for Usart2_Init
    bsp_init.o(.text) refers to drv_adc.o(.text) for Drv_AdcInit
    bsp_init.o(.text) refers to ano_flightctrl.o(.text) for All_PID_Init
    bsp_init.o(.text) refers to drv_gps.o(.text) for Drv_GpsPin_Init
    bsp_init.o(.text) refers to drv_heating.o(.text) for Drv_HeatingInit
    bsp_init.o(.text) refers to ano_sensor_basic.o(.text) for Sensor_Basic_Init
    bsp_init.o(.text) refers to ano_dt.o(.text) for ANO_DT_Init
    bsp_init.o(.text) refers to ano_imu_data.o(.text) for ImuSensitivityInit
    bsp_init.o(.text) refers to stm32f4xx_gpio.o(.text) for GPIO_ResetBits
    bsp_init.o(.text) refers to ano_fcdata.o(.bss) for sens_hd_check
    bsp_init.o(.text) refers to ano_parameter.o(.bss) for Ano_Parame
    ano_dt.o(.text) refers to ano_usb.o(.text) for Usb_Hid_Adddata
    ano_dt.o(.text) refers to drv_usart.o(.text) for Uart5_Send
    ano_dt.o(.text) refers to ano_dt.o(.bss) for dt
    ano_dt.o(.text) refers to ano_imu_data.o(.bss) for st_imuData
    ano_dt.o(.text) refers to ano_magprocess.o(.data) for mag
    ano_dt.o(.text) refers to drv_spl06.o(.bss) for spl_data
    ano_dt.o(.text) refers to ano_imu.o(.data) for imu_data
    ano_dt.o(.text) refers to dflti.o(.text) for __aeabi_i2d
    ano_dt.o(.text) refers to dmul.o(.text) for __aeabi_dmul
    ano_dt.o(.text) refers to dfixi.o(.text) for __aeabi_d2iz
    ano_dt.o(.text) refers to ano_motioncal.o(.bss) for wcz_hei_fus
    ano_dt.o(.text) refers to ano_flightctrl.o(.data) for jsdata
    ano_dt.o(.text) refers to ano_fcdata.o(.bss) for flag
    ano_dt.o(.text) refers to ano_locctrl.o(.bss) for loc_ctrl_1
    ano_dt.o(.text) refers to ano_power.o(.data) for Plane_Votage
    ano_dt.o(.text) refers to drv_gps.o(.bss) for ext_sens
    ano_dt.o(.text) refers to drv_bsp.o(.bss) for rc_in
    ano_dt.o(.text) refers to drv_usart.o(.data) for T265_x
    ano_dt.o(.text) refers to ano_of.o(.bss) for ano_of
    ano_dt.o(.text) refers to ano_parameter.o(.text) for AnoParRead
    ano_dt.o(.text) refers to ano_dt.o(.constdata) for _cs_idlist
    ano_dt.o(.text) refers to ano_fcdata.o(.text) for data_save
    ano_dt.o(.text) refers to ano_imu_calibration.o(.data) for st_imu_cali
    ano_dt.o(.text) refers to ano_parameter.o(.bss) for Ano_Parame
    ano_rc.o(.text) refers to ano_dt.o(.text) for AnoDTSendStr
    ano_rc.o(.text) refers to ano_fcdata.o(.bss) for flag
    ano_rc.o(.text) refers to ano_parameter.o(.data) for para_sta
    ano_rc.o(.text) refers to drv_led.o(.bss) for LED_STA
    ano_rc.o(.text) refers to ano_rc.o(.bss) for CH_N
    ano_rc.o(.text) refers to ano_rc.o(.data) for stick_fun_0
    ano_rc.o(.text) refers to ano_imu_calibration.o(.data) for st_imu_cali
    ano_rc.o(.text) refers to ano_sensor_basic.o(.bss) for sensor
    ano_rc.o(.text) refers to ano_magprocess.o(.data) for mag
    ano_rc.o(.text) refers to drv_bsp.o(.bss) for rc_in
    ano_of.o(.text) refers to ano_of.o(.bss) for check_time_ms
    ano_of.o(.text) refers to ano_of.o(.data) for rxstate
    ano_flyctrl.o(.text) refers to ano_dt.o(.text) for AnoDTSendStr
    ano_flyctrl.o(.text) refers to ano_flightctrl.o(.text) for one_key_take_off
    ano_flyctrl.o(.text) refers to ano_flyctrl.o(.data) for val
    ano_flyctrl.o(.text) refers to ano_flyctrl.o(.bss) for program_ctrl
    ano_flyctrl.o(.text) refers to drv_bsp.o(.bss) for rc_in
    ano_flyctrl.o(.text) refers to ano_fcdata.o(.bss) for flag
    ano_flyctrl.o(.text) refers to ano_imu.o(.text) for h2w_2d_trans
    ano_flyctrl.o(.text) refers to ano_imu.o(.data) for imu_data
    ano_uwb.o(.text) refers to ano_imu.o(.text) for h2w_2d_trans
    ano_uwb.o(.text) refers to ano_uwb.o(.data) for _sta
    ano_uwb.o(.text) refers to ano_uwb.o(.bss) for _rx_buf
    ano_uwb.o(.text) refers to ano_fcdata.o(.bss) for flag
    ano_uwb.o(.text) refers to ano_imu.o(.data) for imu_data
    ano_programctrl_user.o(.text) refers to ano_math.o(.text) for length_limit
    ano_programctrl_user.o(.text) refers to ano_programctrl_user.o(.bss) for pc_user
    ano_opmv_ctrl.o(.text) refers to ano_opmv_cbtracking_ctrl.o(.text) for ANO_CBTracking_Ctrl
    ano_opmv_ctrl.o(.text) refers to ano_programctrl_user.o(.text) for Program_Ctrl_User_Set_HXYcmps
    ano_opmv_ctrl.o(.text) refers to ano_opmv_linetracking_ctrl.o(.text) for ANO_LTracking_Ctrl
    ano_opmv_ctrl.o(.text) refers to ano_flightctrl.o(.data) for jsdata
    ano_opmv_ctrl.o(.text) refers to ano_opmv_ctrl.o(.data) for opmv_ct_sta
    ano_opmv_ctrl.o(.text) refers to ano_fcdata.o(.bss) for flag
    ano_opmv_ctrl.o(.text) refers to drv_openmv.o(.bss) for opmv
    ano_opmv_ctrl.o(.text) refers to ano_opmv_cbtracking_ctrl.o(.bss) for ano_opmv_cbt_ctrl
    ano_opmv_ctrl.o(.text) refers to ano_opmv_linetracking_ctrl.o(.bss) for ano_opmv_lt_ctrl
    ano_opmv_cbtracking_ctrl.o(.text) refers to ano_opmv_cbtracking_ctrl.o(.data) for relative_height_cm_valid
    ano_opmv_cbtracking_ctrl.o(.text) refers to ano_opmv_cbtracking_ctrl.o(.bss) for ano_opmv_cbt_ctrl
    ano_opmv_cbtracking_ctrl.o(.text) refers to drv_openmv.o(.bss) for opmv
    ano_opmv_cbtracking_ctrl.o(.text) refers to ano_fcdata.o(.bss) for sens_hd_check
    ano_opmv_cbtracking_ctrl.o(.text) refers to ano_of.o(.bss) for ano_of
    ano_opmv_cbtracking_ctrl.o(.text) refers to ano_of_decofusion.o(.bss) for of_rdf
    ano_opmv_cbtracking_ctrl.o(.text) refers to ano_imu.o(.data) for imu_data
    ano_opmv_cbtracking_ctrl.o(.text) refers to ano_flightctrl.o(.data) for jsdata
    ano_opmv_linetracking_ctrl.o(.text) refers to ano_opmv_linetracking_ctrl.o(.data) for relative_height_cm_valid
    ano_opmv_linetracking_ctrl.o(.text) refers to ano_opmv_linetracking_ctrl.o(.bss) for ano_opmv_lt_ctrl
    ano_opmv_linetracking_ctrl.o(.text) refers to drv_openmv.o(.bss) for opmv
    ano_opmv_linetracking_ctrl.o(.text) refers to ano_imu.o(.data) for imu_data
    ano_opmv_linetracking_ctrl.o(.text) refers to ano_flightctrl.o(.data) for jsdata
    ano_of_decofusion.o(.text) refers to ano_imu.o(.text) for h2w_2d_trans
    ano_of_decofusion.o(.text) refers to ano_of_decofusion.o(.data) for rad_ps_lpf
    ano_of_decofusion.o(.text) refers to ano_of_decofusion.o(.bss) for of_rdf
    ano_of_decofusion.o(.text) refers to drv_up_flow.o(.data) for of_buf_update_cnt
    ano_of_decofusion.o(.text) refers to drv_up_flow.o(.bss) for OF_DATA
    ano_of_decofusion.o(.text) refers to ano_imu.o(.data) for imu_data
    ano_of_decofusion.o(.text) refers to ano_sensor_basic.o(.bss) for sensor
    ano_of_decofusion.o(.text) refers to drv_laser.o(.data) for LASER_LINKOK
    ano_of_decofusion.o(.text) refers to ano_fcdata.o(.bss) for sens_hd_check
    ano_fcdata.o(.text) refers to ano_parameter.o(.text) for Ano_Parame_Read
    ano_fcdata.o(.text) refers to ano_fcdata.o(.bss) for flag
    ano_fcdata.o(.text) refers to ano_parameter.o(.data) for para_sta
    ano_filter.o(.text) refers to dadd.o(.text) for __aeabi_dsub
    ano_filter.o(.text) refers to f2d.o(.text) for __aeabi_f2d
    ano_filter.o(.text) refers to dmul.o(.text) for __aeabi_dmul
    ano_filter.o(.text) refers to ano_math.o(.text) for my_sqrt
    ano_filter.o(.text) refers to ano_filter.o(.data) for h_tmp_x
    ano_imu.o(.text) refers to ano_math.o(.text) for my_sqrt_reciprocal
    ano_imu.o(.text) refers to ano_imu.o(.bss) for att_matrix
    ano_imu.o(.text) refers to ano_imu.o(.data) for q0q1
    ano_imu.o(.text) refers to ano_imu_data.o(.bss) for st_imuData
    ano_math.o(.text) refers to cdcmple.o(.text) for __aeabi_cdcmple
    ano_math.o(.text) refers to dmul.o(.text) for __aeabi_dmul
    ano_math.o(.text) refers to dadd.o(.text) for __aeabi_dadd
    ano_math.o(.text) refers to cdrcmple.o(.text) for __aeabi_cdrcmple
    ano_math.o(.text) refers to dflti.o(.text) for __aeabi_i2d
    ano_math.o(.text) refers to d2f.o(.text) for __aeabi_d2f
    ano_math.o(.text) refers to ano_math.o(.constdata) for fast_atan_table
    ano_motioncal.o(.text) refers to ano_filter.o(.text) for inte_fix_filter
    ano_motioncal.o(.text) refers to ano_motioncal.o(.data) for wcz_ref_height
    ano_motioncal.o(.text) refers to ano_motioncal.o(.bss) for wcz_acc_fus
    ano_navigate.o(.text) refers to f2d.o(.text) for __aeabi_f2d
    ano_navigate.o(.text) refers to ano_math.o(.text) for my_cos
    ano_sensor_basic.o(.text) refers to ano_parameter.o(.bss) for Ano_Parame
    ano_sensor_basic.o(.text) refers to ano_sensor_basic.o(.bss) for center_pos
    ano_sensor_basic.o(.text) refers to ano_imu_calibration.o(.data) for st_imu_cali
    ano_sensor_basic.o(.text) refers to ano_imu_data.o(.bss) for st_imuData
    ano_altctrl.o(.text) refers to ano_flightctrl.o(.text) for one_key_take_off_task
    ano_altctrl.o(.text) refers to ano_pid.o(.text) for PID_calculate
    ano_altctrl.o(.text) refers to ano_fcdata.o(.bss) for flag
    ano_altctrl.o(.text) refers to ano_altctrl.o(.data) for auto_taking_off_speed
    ano_altctrl.o(.text) refers to ano_parameter.o(.bss) for Ano_Parame
    ano_altctrl.o(.text) refers to ano_motioncal.o(.bss) for wcz_hei_fus
    ano_altctrl.o(.text) refers to ano_locctrl.o(.bss) for loc_ctrl_2
    ano_altctrl.o(.text) refers to ano_flightctrl.o(.bss) for fs
    ano_altctrl.o(.text) refers to ano_altctrl.o(.bss) for alt_arg_2
    ano_altctrl.o(.text) refers to ano_imu.o(.data) for imu_data
    ano_altctrl.o(.text) refers to ano_motorctrl.o(.bss) for mc
    ano_attctrl.o(.text) refers to ano_parameter.o(.bss) for Ano_Parame
    ano_attctrl.o(.text) refers to ano_attctrl.o(.bss) for arg_2
    ano_attctrl.o(.text) refers to ano_locctrl.o(.bss) for loc_ctrl_1
    ano_attctrl.o(.text) refers to ano_attctrl.o(.data) for exp_rol_tmp
    ano_attctrl.o(.text) refers to ano_fcdata.o(.bss) for flag
    ano_attctrl.o(.text) refers to ano_math.o(.text) for my_deadzone
    ano_attctrl.o(.text) refers to ano_pid.o(.text) for PID_calculate
    ano_attctrl.o(.text) refers to ano_flightctrl.o(.text) for ctrl_parameter_change_task
    ano_attctrl.o(.text) refers to ano_flyctrl.o(.bss) for program_ctrl
    ano_attctrl.o(.text) refers to ano_programctrl_user.o(.bss) for pc_user
    ano_attctrl.o(.text) refers to ano_imu.o(.data) for imu_data
    ano_attctrl.o(.text) refers to ano_sensor_basic.o(.bss) for sensor
    ano_attctrl.o(.text) refers to ano_motorctrl.o(.bss) for mc
    ano_flightctrl.o(.text) refers to ano_attctrl.o(.text) for Att_1level_PID_Init
    ano_flightctrl.o(.text) refers to ano_altctrl.o(.text) for Alt_1level_PID_Init
    ano_flightctrl.o(.text) refers to ano_locctrl.o(.text) for Loc_1level_PID_Init
    ano_flightctrl.o(.text) refers to ano_math.o(.text) for my_deadzone
    ano_flightctrl.o(.text) refers to ano_fcdata.o(.bss) for flag
    ano_flightctrl.o(.text) refers to ano_attctrl.o(.bss) for rolling_flag
    ano_flightctrl.o(.text) refers to ano_flightctrl.o(.data) for one_key_taof_start
    ano_flightctrl.o(.text) refers to ano_flightctrl.o(.bss) for fs
    ano_flightctrl.o(.text) refers to ano_motorctrl.o(.bss) for mc
    ano_flightctrl.o(.text) refers to ano_flyctrl.o(.bss) for program_ctrl
    ano_flightctrl.o(.text) refers to ano_programctrl_user.o(.bss) for pc_user
    ano_flightctrl.o(.text) refers to ano_motioncal.o(.text) for WCZ_Data_Reset
    ano_flightctrl.o(.text) refers to ano_dt.o(.text) for AnoDTSendStr
    ano_flightctrl.o(.text) refers to stm32f4xx_gpio.o(.text) for GPIO_SetBits
    ano_flightctrl.o(.text) refers to drv_time.o(.text) for Delay_us
    ano_flightctrl.o(.text) refers to ano_motioncal.o(.bss) for wcz_hei_fus
    ano_flightctrl.o(.text) refers to ano_imu.o(.data) for imu_data
    ano_flightctrl.o(.text) refers to ano_magprocess.o(.data) for mag
    ano_flightctrl.o(.text) refers to ano_imu_calibration.o(.data) for st_imu_cali
    ano_flightctrl.o(.text) refers to drv_led.o(.bss) for LED_STA
    ano_flightctrl.o(.text) refers to ano_of.o(.bss) for ano_of
    ano_flightctrl.o(.text) refers to ano_of_decofusion.o(.bss) for of_rdf
    ano_flightctrl.o(.text) refers to drv_laser.o(.data) for Laser_height_cm
    ano_flightctrl.o(.text) refers to ano_uwb.o(.bss) for uwb_data
    ano_flightctrl.o(.text) refers to drv_openmv.o(.bss) for opmv
    ano_flightctrl.o(.text) refers to ano_rc.o(.bss) for CH_N
    ano_flightctrl.o(.text) refers to task1.o(.data) for change_flag1
    ano_flightctrl.o(.text) refers to drv_bsp.o(.bss) for rc_in
    ano_flightctrl.o(.text) refers to ultr.o(.data) for TIM4CH1_CAPTURE_STA
    ano_flightctrl.o(.text) refers to ldiv.o(.text) for __aeabi_ldivmod
    ano_flightctrl.o(.text) refers to ffltl.o(.text) for __aeabi_l2f
    ano_flightctrl.o(.text) refers to drv_openmv.o(.text) for uasrt2_senddata
    ano_flightctrl.o(.text) refers to ano_dt.o(.data) for usart_flag
    ano_locctrl.o(.text) refers to memcpya.o(.text) for __aeabi_memcpy4
    ano_locctrl.o(.text) refers to ano_imu.o(.text) for h2w_2d_trans
    ano_locctrl.o(.text) refers to ano_pid.o(.text) for PID_calculate
    ano_locctrl.o(.text) refers to ano_locctrl.o(.data) for mode_f
    ano_locctrl.o(.text) refers to ano_parameter.o(.bss) for Ano_Parame
    ano_locctrl.o(.text) refers to ano_locctrl.o(.bss) for loc_arg_1
    ano_locctrl.o(.text) refers to ano_fcdata.o(.bss) for switchs
    ano_locctrl.o(.text) refers to ano_flightctrl.o(.bss) for fs
    ano_locctrl.o(.text) refers to ano_imu.o(.data) for imu_data
    ano_locctrl.o(.text) refers to ano_of.o(.bss) for ano_of
    ano_locctrl.o(.text) refers to ano_of_decofusion.o(.bss) for of_rdf
    ano_locctrl.o(.text) refers to ano_uwb.o(.bss) for uwb_data
    ano_locctrl.o(.text) refers to ano_math.o(.text) for length_limit
    ano_locctrl.o(.text) refers to drv_gps.o(.bss) for Gps_information
    ano_locctrl.o(.text) refers to drv_gps.o(.data) for wcx_acc_use
    ano_magprocess.o(.text) refers to ano_math.o(.text) for Vec3f_Mul_MatrixT
    ano_magprocess.o(.text) refers to ano_fcdata.o(.text) for data_save
    ano_magprocess.o(.text) refers to ano_magprocess.o(.data) for max_t
    ano_magprocess.o(.text) refers to ano_parameter.o(.bss) for Ano_Parame
    ano_magprocess.o(.text) refers to ano_fcdata.o(.bss) for flag
    ano_magprocess.o(.text) refers to drv_led.o(.bss) for LED_STA
    ano_motorctrl.o(.text) refers to drv_pwm_out.o(.text) for SetPwm
    ano_motorctrl.o(.text) refers to ano_fcdata.o(.bss) for flag
    ano_motorctrl.o(.text) refers to ano_parameter.o(.bss) for Ano_Parame
    ano_motorctrl.o(.text) refers to ano_motorctrl.o(.data) for IDLING
    ano_motorctrl.o(.text) refers to ano_motorctrl.o(.bss) for mc
    ano_power.o(.text) refers to drv_adc.o(.data) for AdcValue
    ano_power.o(.text) refers to ano_power.o(.data) for voltage_s16
    ano_power.o(.text) refers to ano_fcdata.o(.bss) for flag
    ano_power.o(.text) refers to ano_parameter.o(.bss) for Ano_Parame
    ano_power.o(.text) refers to drv_led.o(.bss) for LED_STA
    ano_flightdatacal.o(.text) refers to ano_imu_task.o(.text) for ImuServices_1ms_c
    ano_flightdatacal.o(.text) refers to drv_ak8975.o(.text) for Drv_AK8975_Read
    ano_flightdatacal.o(.text) refers to drv_spl06.o(.text) for Drv_Spl0601_Read
    ano_flightdatacal.o(.text) refers to ano_imu.o(.text) for IMU_update
    ano_flightdatacal.o(.text) refers to ano_magprocess.o(.text) for Mag_Data_Deal_Task
    ano_flightdatacal.o(.text) refers to ano_motioncal.o(.text) for WCZ_Data_Calc
    ano_flightdatacal.o(.text) refers to ano_fcdata.o(.bss) for flag
    ano_flightdatacal.o(.text) refers to ano_flightdatacal.o(.data) for cnt
    ano_flightdatacal.o(.text) refers to ano_imu.o(.data) for imu_state
    ano_flightdatacal.o(.text) refers to ano_imu_data.o(.bss) for st_imuData
    ano_flightdatacal.o(.text) refers to ano_imu_calibration.o(.data) for st_imu_cali
    ano_flightdatacal.o(.text) refers to ano_magprocess.o(.data) for mag
    ano_flightdatacal.o(.text) refers to ano_sensor_basic.o(.bss) for sensor
    ano_flightdatacal.o(.text) refers to ano_flightctrl.o(.data) for jsdata
    drv_led.o(.text) refers to stm32f4xx_gpio.o(.text) for GPIO_StructInit
    drv_led.o(.text) refers to stm32f4xx_rcc.o(.text) for RCC_AHB1PeriphClockCmd
    drv_led.o(.text) refers to drv_led.o(.data) for led_cnt
    drv_led.o(.text) refers to drv_led.o(.bss) for LED_STA
    drv_led.o(.text) refers to ano_fcdata.o(.bss) for flag
    drv_led.o(.text) refers to ano_opmv_cbtracking_ctrl.o(.bss) for ano_opmv_cbt_ctrl
    drv_led.o(.text) refers to ano_opmv_linetracking_ctrl.o(.bss) for ano_opmv_lt_ctrl
    drv_adc.o(.text) refers to stm32f4xx_dma.o(.text) for DMA_StructInit
    drv_adc.o(.text) refers to stm32f4xx_rcc.o(.text) for RCC_AHB1PeriphClockCmd
    drv_adc.o(.text) refers to stm32f4xx_adc.o(.text) for ADC_StructInit
    drv_adc.o(.text) refers to stm32f4xx_gpio.o(.text) for GPIO_Init
    drv_adc.o(.text) refers to drv_adc.o(.data) for AdcValue
    ano_parameter.o(.text) refers to ano_dt.o(.text) for AnoDTSendStr
    ano_parameter.o(.text) refers to ano_flightctrl.o(.text) for All_PID_Init
    ano_parameter.o(.text) refers to drv_w25qxx.o(.text) for Flash_SectorErase
    ano_parameter.o(.text) refers to ano_parameter.o(.bss) for Ano_Parame
    ano_parameter.o(.text) refers to ano_parameter.o(.data) for para_sta
    ano_parameter.o(.text) refers to drv_led.o(.bss) for LED_STA
    ano_parameter.o(.text) refers to ano_fcdata.o(.text) for data_save
    ano_parameter.o(.text) refers to ano_imu_data.o(.text) for ImuSensitivityInit
    ano_parameter.o(.text) refers to ano_imu_calibration.o(.data) for st_imu_cali
    ano_parameter.o(.text) refers to ano_magprocess.o(.data) for mag
    drv_spi.o(.text) refers to stm32f4xx_rcc.o(.text) for RCC_AHB1PeriphClockCmd
    drv_spi.o(.text) refers to stm32f4xx_gpio.o(.text) for GPIO_PinAFConfig
    drv_spi.o(.text) refers to stm32f4xx_spi.o(.text) for SPI_Init
    drv_pwm_out.o(.text) refers to stm32f4xx_gpio.o(.text) for GPIO_StructInit
    drv_pwm_out.o(.text) refers to stm32f4xx_tim.o(.text) for TIM_TimeBaseStructInit
    drv_pwm_out.o(.text) refers to stm32f4xx_rcc.o(.text) for RCC_APB1PeriphClockCmd
    drv_pwm_out.o(.text) refers to system_stm32f4xx.o(.data) for SystemCoreClock
    drv_time.o(.text) refers to stm32f4xx_rcc.o(.text) for RCC_APB1PeriphClockCmd
    drv_time.o(.text) refers to stm32f4xx_tim.o(.text) for TIM_DeInit
    drv_time.o(.text) refers to misc.o(.text) for NVIC_Init
    drv_time.o(.text) refers to drv_led.o(.text) for LED_1ms_DRV
    drv_time.o(.text) refers to drv_time.o(.data) for sysTickUptime
    drv_usart.o(.text) refers to stm32f4xx_rcc.o(.text) for RCC_AHB1PeriphClockCmd
    drv_usart.o(.text) refers to stm32f4xx_gpio.o(.text) for GPIO_PinAFConfig
    drv_usart.o(.text) refers to stm32f4xx_usart.o(.text) for USART_Init
    drv_usart.o(.text) refers to misc.o(.text) for NVIC_Init
    drv_usart.o(.text) refers to drv_openmv.o(.text) for OpenMV_Byte_Get
    drv_usart.o(.text) refers to drv_usart.o(.data) for ac
    drv_usart.o(.text) refers to drv_usart.o(.bss) for Recive_Data1
    drv_usart.o(.text) refers to ano_of.o(.text) for AnoOF_GetOneByte
    drv_usart.o(.text) refers to drv_up_flow.o(.text) for OFGetByte
    drv_usart.o(.text) refers to ano_dt.o(.text) for AnoDTRxOneByteUart
    drv_usart.o(.text) refers to bsp_init.o(.data) for of_init_type
    drv_ak8975.o(.text) refers to stm32f4xx_rcc.o(.text) for RCC_AHB1PeriphClockCmd
    drv_ak8975.o(.text) refers to stm32f4xx_gpio.o(.text) for GPIO_Init
    drv_ak8975.o(.text) refers to drv_spi.o(.text) for Drv_SPI2_RW
    drv_ak8975.o(.text) refers to drv_ak8975.o(.data) for ak8975_buf
    drv_icm20602.o(.text) refers to drv_spi.o(.text) for Drv_SPI2_RW
    drv_icm20602.o(.text) refers to stm32f4xx_rcc.o(.text) for RCC_AHB1PeriphClockCmd
    drv_icm20602.o(.text) refers to stm32f4xx_gpio.o(.text) for GPIO_Init
    drv_icm20602.o(.text) refers to stm32f4xx_syscfg.o(.text) for SYSCFG_EXTILineConfig
    drv_icm20602.o(.text) refers to stm32f4xx_exti.o(.text) for EXTI_ClearITPendingBit
    drv_icm20602.o(.text) refers to misc.o(.text) for NVIC_Init
    drv_icm20602.o(.text) refers to drv_time.o(.text) for Delay_ms
    drv_icm20602.o(.text) refers to drv_icm20602.o(.bss) for mpu_buffer
    drv_icm20602.o(.text) refers to ano_sensor_basic.o(.bss) for sensor
    drv_spl06.o(.text) refers to stm32f4xx_rcc.o(.text) for RCC_AHB1PeriphClockCmd
    drv_spl06.o(.text) refers to stm32f4xx_gpio.o(.text) for GPIO_Init
    drv_spl06.o(.text) refers to drv_spi.o(.text) for Drv_SPI2_RW
    drv_spl06.o(.text) refers to drv_spl06.o(.data) for p_spl0601
    drv_spl06.o(.text) refers to f2d.o(.text) for __aeabi_f2d
    drv_spl06.o(.text) refers to dflti.o(.text) for __aeabi_i2d
    drv_spl06.o(.text) refers to dmul.o(.text) for __aeabi_dmul
    drv_spl06.o(.text) refers to dadd.o(.text) for __aeabi_dadd
    drv_spl06.o(.text) refers to d2f.o(.text) for __aeabi_d2f
    drv_spl06.o(.text) refers to drv_spl06.o(.bss) for spl0601
    drv_w25qxx.o(.text) refers to stm32f4xx_spi.o(.text) for SPI_I2S_GetFlagStatus
    drv_w25qxx.o(.text) refers to stm32f4xx_gpio.o(.text) for GPIO_WriteBit
    drv_w25qxx.o(.text) refers to stm32f4xx_rcc.o(.text) for RCC_AHB1PeriphClockCmd
    drv_w25qxx.o(.text) refers to drv_w25qxx.o(.bss) for flash_info
    usbd_stm32f4xx_fs.o(.text) refers to system_stm32f4xx.o(.data) for SystemCoreClock
    usbd_stm32f4xx_fs.o(.text) refers to usb_config.o(.constdata) for USBD_P_SOF_Event
    usbd_stm32f4xx_fs.o(.text) refers to usbd_stm32f4xx_fs.o(.data) for SyncWriteEP
    usbd_stm32f4xx_fs.o(.text) refers to usbd_core.o(.text) for usbd_reset_core
    usbd_stm32f4xx_fs.o(.text) refers to usbd_stm32f4xx_fs.o(.bss) for IsoOutPacketDataCnt
    usbd_stm32f4xx_fs.o(.data) refers to usbd_stm32f4xx_fs.o(.bss) for HID_IntInPacketData
    drv_gps.o(.text) refers to stm32f4xx_usart.o(.text) for USART_GetFlagStatus
    drv_gps.o(.text) refers to drv_time.o(.text) for Delay_ms
    drv_gps.o(.text) refers to stm32f4xx_rcc.o(.text) for RCC_APB2PeriphClockCmd
    drv_gps.o(.text) refers to misc.o(.text) for NVIC_Init
    drv_gps.o(.text) refers to stm32f4xx_gpio.o(.text) for GPIO_PinAFConfig
    drv_gps.o(.text) refers to dflti.o(.text) for __aeabi_i2d
    drv_gps.o(.text) refers to dadd.o(.text) for __aeabi_dsub
    drv_gps.o(.text) refers to dfixi.o(.text) for __aeabi_d2iz
    drv_gps.o(.text) refers to drv_gps.o(.data) for len
    drv_gps.o(.text) refers to drv_gps.o(.constdata) for gps_petrol_out_config
    drv_gps.o(.text) refers to drv_gps.o(.bss) for Gps_information
    drv_gps.o(.text) refers to ano_imu.o(.data) for imu_data
    drv_gps.o(.text) refers to ano_fcdata.o(.bss) for flag
    drv_heating.o(.text) refers to stm32f4xx_rcc.o(.text) for RCC_APB2PeriphClockCmd
    drv_heating.o(.text) refers to stm32f4xx_gpio.o(.text) for GPIO_Init
    drv_heating.o(.text) refers to stm32f4xx_tim.o(.text) for TIM_TimeBaseInit
    drv_heating.o(.text) refers to ano_dt.o(.text) for AnoDTSendStr
    drv_heating.o(.text) refers to ano_fcdata.o(.bss) for flag
    drv_heating.o(.text) refers to ano_parameter.o(.bss) for Ano_Parame
    drv_heating.o(.text) refers to drv_heating.o(.data) for thermostatic_en
    drv_heating.o(.text) refers to drv_heating.o(.bss) for temperature_fb
    drv_heating.o(.text) refers to ano_imu_data.o(.bss) for st_imuData
    drv_laser.o(.text) refers to drv_time.o(.text) for Delay_ms
    drv_laser.o(.text) refers to drv_laser.o(.data) for LASER_LINKOK
    drv_laser.o(.text) refers to ano_fcdata.o(.bss) for sens_hd_check
    drv_laser.o(.text) refers to drv_laser.o(.bss) for tmp
    drv_openmv.o(.text) refers to drv_usart.o(.text) for Usart2_Send
    drv_openmv.o(.text) refers to drv_openmv.o(.data) for offline_check_time
    drv_openmv.o(.text) refers to drv_openmv.o(.bss) for opmv
    drv_up_flow.o(.text) refers to drv_usart.o(.text) for Uart4_Send
    drv_up_flow.o(.text) refers to drv_time.o(.text) for Delay_ms
    drv_up_flow.o(.text) refers to drv_up_flow.o(.data) for of_init_cnt
    drv_up_flow.o(.text) refers to drv_up_flow.o(.bss) for com_getdata
    drv_up_flow.o(.text) refers to drv_up_flow.o(.constdata) for Sensor_cfg
    drv_bmi088.o(.text) refers to stm32f4xx_rcc.o(.text) for RCC_AHB1PeriphClockCmd
    drv_bmi088.o(.text) refers to stm32f4xx_gpio.o(.text) for GPIO_Init
    drv_bmi088.o(.text) refers to bsp_init.o(.text) for DrvGpioCsPinCtrlBmi088Acc
    drv_bmi088.o(.text) refers to drv_spi.o(.text) for Drv_SPI2_RW
    drv_bmi088.o(.text) refers to drv_time.o(.text) for Delay_ms
    drv_bmi088.o(.text) refers to drv_bmi088.o(.data) for read_acceleration_f
    drv_bmi088.o(.text) refers to drv_bmi088.o(.bss) for st_bmi_data
    drv_bmi088.o(.text) refers to drv_spl06.o(.bss) for spl_data
    drv_bsp.o(.text) refers to drv_rcin.o(.text) for DrvRcSbusInit
    drv_bsp.o(.text) refers to drv_time.o(.text) for GetSysTime_us
    drv_bsp.o(.text) refers to drv_bsp.o(.bss) for rc_in
    drv_bsp.o(.text) refers to drv_bsp.o(.data) for sbus_time
    drv_rcin.o(.text) refers to stm32f4xx_gpio.o(.text) for GPIO_StructInit
    drv_rcin.o(.text) refers to stm32f4xx_rcc.o(.text) for RCC_APB2PeriphClockCmd
    drv_rcin.o(.text) refers to misc.o(.text) for NVIC_Init
    drv_rcin.o(.text) refers to stm32f4xx_usart.o(.text) for USART_Init
    drv_rcin.o(.text) refers to drv_bsp.o(.text) for DrvSbusGetOneByte
    drv_rcin.o(.text) refers to stm32f4xx_tim.o(.text) for TIM_ICStructInit
    drv_rcin.o(.text) refers to drv_rcin.o(.data) for temp_cnt
    misc.o(.text) refers to main.o(.text) for assert_failed
    stm32f4xx_adc.o(.text) refers to stm32f4xx_rcc.o(.text) for RCC_APB2PeriphResetCmd
    stm32f4xx_adc.o(.text) refers to main.o(.text) for assert_failed
    stm32f4xx_dbgmcu.o(.text) refers to main.o(.text) for assert_failed
    stm32f4xx_dma.o(.text) refers to main.o(.text) for assert_failed
    stm32f4xx_exti.o(.text) refers to main.o(.text) for assert_failed
    stm32f4xx_flash.o(.text) refers to main.o(.text) for assert_failed
    stm32f4xx_gpio.o(.text) refers to main.o(.text) for assert_failed
    stm32f4xx_gpio.o(.text) refers to stm32f4xx_rcc.o(.text) for RCC_AHB1PeriphResetCmd
    stm32f4xx_i2c.o(.text) refers to main.o(.text) for assert_failed
    stm32f4xx_i2c.o(.text) refers to stm32f4xx_rcc.o(.text) for RCC_APB1PeriphResetCmd
    stm32f4xx_pwr.o(.text) refers to stm32f4xx_rcc.o(.text) for RCC_APB1PeriphResetCmd
    stm32f4xx_pwr.o(.text) refers to main.o(.text) for assert_failed
    stm32f4xx_rcc.o(.text) refers to main.o(.text) for assert_failed
    stm32f4xx_rcc.o(.text) refers to stm32f4xx_rcc.o(.data) for APBAHBPrescTable
    stm32f4xx_spi.o(.text) refers to main.o(.text) for assert_failed
    stm32f4xx_spi.o(.text) refers to stm32f4xx_rcc.o(.text) for RCC_APB2PeriphResetCmd
    stm32f4xx_syscfg.o(.text) refers to stm32f4xx_rcc.o(.text) for RCC_APB2PeriphResetCmd
    stm32f4xx_syscfg.o(.text) refers to main.o(.text) for assert_failed
    stm32f4xx_tim.o(.text) refers to main.o(.text) for assert_failed
    stm32f4xx_tim.o(.text) refers to stm32f4xx_rcc.o(.text) for RCC_APB2PeriphResetCmd
    stm32f4xx_usart.o(.text) refers to main.o(.text) for assert_failed
    stm32f4xx_usart.o(.text) refers to stm32f4xx_rcc.o(.text) for RCC_APB2PeriphResetCmd
    system_stm32f4xx.o(.text) refers to system_stm32f4xx.o(.data) for SystemCoreClock
    startup_stm32f4xx.o(RESET) refers to startup_stm32f4xx.o(STACK) for __initial_sp
    startup_stm32f4xx.o(RESET) refers to startup_stm32f4xx.o(.text) for Reset_Handler
    startup_stm32f4xx.o(RESET) refers to stm32f4xx_it.o(.text) for NMI_Handler
    startup_stm32f4xx.o(RESET) refers to drv_time.o(.text) for SysTick_Handler
    startup_stm32f4xx.o(RESET) refers to ultr.o(.text) for TIM4_IRQHandler
    startup_stm32f4xx.o(RESET) refers to drv_usart.o(.text) for USART1_IRQHandler
    startup_stm32f4xx.o(RESET) refers to usbd_stm32f4xx_fs.o(.text) for OTG_FS_IRQHandler
    startup_stm32f4xx.o(.text) refers to system_stm32f4xx.o(.text) for SystemInit
    startup_stm32f4xx.o(.text) refers to entry.o(.ARM.Collect$$$$00000000) for __main
    usbd_core.o(.text) refers to usb_config.o(.text) for usbd_class_init
    usbd_core.o(.text) refers to usbd_stm32f4xx_fs.o(.text) for USBD_Init
    usbd_core.o(.text) refers to usbd_core_hid.o(.text) for USBD_ReqGetDescriptor_HID
    usbd_core.o(.text) refers to usbd_core.o(.data) for USBD_HighSpeed
    usbd_core.o(.text) refers to usb_config.o(.constdata) for usbd_power
    usbd_core.o(.text) refers to usb_config.o(.bss) for USBD_EP0Buf
    usbd_core.o(.text) refers to usb_config.o(.data) for USBD_AltSetting
    usbd_core_hid.o(.text) refers to usbd_hid.o(.text) for USBD_HID_GetReport
    usbd_core_hid.o(.text) refers to usbd_core.o(.text) for USBD_DataInStage
    usbd_core_hid.o(.text) refers to usbd_core.o(.data) for USBD_SetupPacket
    usbd_core_hid.o(.text) refers to usb_config.o(.constdata) for usbd_hid_if_num
    usbd_core_hid.o(.text) refers to usb_config.o(.bss) for USBD_HID_InReport
    usbd_core_hid.o(.text) refers to usb_config.o(.data) for USBD_HID_FeatReport
    usbd_hid.o(.text) refers to ano_usb.o(.text) for usbd_hid_get_report
    usbd_hid.o(.text) refers to usbd_stm32f4xx_fs.o(.text) for USBD_WriteEP
    usbd_hid.o(.text) refers to usbd_core.o(.data) for USBD_SetupPacket
    usbd_hid.o(.text) refers to usb_config.o(.bss) for USBD_HID_InReport
    usbd_hid.o(.text) refers to usb_config.o(.data) for USBD_HID_FeatReport
    usbd_hid.o(.text) refers to usb_config.o(.constdata) for usbd_hid_inreport_num
    usbd_hid.o(.text) refers to usbd_hid.o(.data) for DataOutSentLen
    usbd_hid.o(.text) refers to memcpya.o(.text) for __aeabi_memcpy
    ano_imu_calibration.o(.text) refers to ano_math.o(.text) for my_sqrt
    ano_imu_calibration.o(.text) refers to ano_imu_calibration.o(.bss) for acc_tmp
    ano_imu_calibration.o(.text) refers to ano_imu_calibration.o(.data) for acc_delta_length
    ano_imu_data.o(.text) refers to ano_math.o(.text) for Vec3f_Mul_MatrixT
    ano_imu_data.o(.text) refers to ano_imu_data.o(.bss) for st_imuData
    ano_imu_task.o(.text) refers to drv_bmi088.o(.text) for DrvBmi088AccelerationRead
    ano_imu_task.o(.text) refers to ano_imu_data.o(.text) for ImuDataGet
    ano_imu_task.o(.text) refers to ano_imu_calibration.o(.text) for AccGyrStableCheck_Services
    ano_imu_task.o(.text) refers to ano_fcdata.o(.text) for data_save
    ano_imu_task.o(.text) refers to drv_bmi088.o(.bss) for st_bmi_data
    ano_imu_task.o(.text) refers to ano_parameter.o(.bss) for Ano_Parame
    ano_imu_task.o(.text) refers to ano_fcdata.o(.bss) for flag
    ano_imu_task.o(.text) refers to ano_imu_data.o(.bss) for st_imuData
    ano_imu_task.o(.text) refers to ano_imu_calibration.o(.data) for st_imu_cali
    ano_imu_task.o(.text) refers to drv_spl06.o(.bss) for spl_data
    ultr.o(.text) refers to stm32f4xx_rcc.o(.text) for RCC_AHB1PeriphClockCmd
    ultr.o(.text) refers to stm32f4xx_gpio.o(.text) for GPIO_Init
    ultr.o(.text) refers to stm32f4xx_tim.o(.text) for TIM_TimeBaseInit
    ultr.o(.text) refers to misc.o(.text) for NVIC_Init
    ultr.o(.text) refers to ultr.o(.bss) for TIM4_ICInitStructure
    ultr.o(.text) refers to ultr.o(.data) for TIM4CH1_CAPTURE_STA
    exti.o(.text) refers to stm32f4xx_rcc.o(.text) for RCC_APB2PeriphClockCmd
    exti.o(.text) refers to stm32f4xx_syscfg.o(.text) for SYSCFG_EXTILineConfig
    exti.o(.text) refers to stm32f4xx_exti.o(.text) for EXTI_Init
    exti.o(.text) refers to misc.o(.text) for NVIC_Init
    task1.o(.text) refers to memcpya.o(.text) for __aeabi_memcpy4
    task1.o(.text) refers to ano_flightctrl.o(.text) for one_key_take_off
    task1.o(.text) refers to drv_openmv.o(.text) for uasrt2_senddata
    task1.o(.text) refers to dflti.o(.text) for __aeabi_i2d
    task1.o(.text) refers to dmul.o(.text) for __aeabi_dmul
    task1.o(.text) refers to d2f.o(.text) for __aeabi_d2f
    task1.o(.text) refers to ano_programctrl_user.o(.text) for Program_Ctrl_User_Set_HXYcmps
    task1.o(.text) refers to task1.o(.constdata) for .constdata
    task1.o(.text) refers to task1.o(.bss) for array_x
    task1.o(.text) refers to task1.o(.data) for A_pitch
    task1.o(.text) refers to drv_usart.o(.data) for T265_lz
    task1.o(.text) refers to ano_fcdata.o(.bss) for flag
    task1.o(.text) refers to ano_dt.o(.data) for usart_flag
    cjson.o(.text) refers to scanf_fp.o(.text) for _scanf_real
    cjson.o(.text) refers to printfa.o(i.__0sprintf) for __2sprintf
    cjson.o(.text) refers to tolower.o(.text) for tolower
    cjson.o(.text) refers to strlen.o(.text) for strlen
    cjson.o(.text) refers to memcpya.o(.text) for __aeabi_memcpy
    cjson.o(.text) refers to memseta.o(.text) for __aeabi_memclr4
    cjson.o(.text) refers to strtod.o(i.__hardfp_strtod) for __hardfp_strtod
    cjson.o(.text) refers to cdrcmple.o(.text) for __aeabi_cdrcmple
    cjson.o(.text) refers to cdcmple.o(.text) for __aeabi_cdcmple
    cjson.o(.text) refers to dfixi.o(.text) for __aeabi_d2iz
    cjson.o(.text) refers to cjson.o(.data) for global_error
    cjson.o(.text) refers to cjson.o(.bss) for version
    cjson.o(.text) refers to mallocr.o(i.__malloc$realloc) for malloc
    cjson.o(.text) refers to mallocr.o(i.__free$realloc) for free
    cjson.o(.text) refers to mallocr.o(i.realloc) for realloc
    cjson.o(.text) refers to dmul.o(.text) for __aeabi_dmul
    cjson.o(.text) refers to __0sscanf.o(.text) for __0sscanf
    cjson.o(.text) refers to strcpy.o(.text) for strcpy
    cjson.o(.text) refers to strncmp.o(.text) for strncmp
    cjson.o(.text) refers to strcmp.o(.text) for strcmp
    cjson.o(.text) refers to dflti.o(.text) for __aeabi_i2d
    cjson.o(.text) refers to f2d.o(.text) for __aeabi_f2d
    cjson.o(.data) refers to mallocr.o(i.__malloc$realloc) for malloc
    cjson.o(.data) refers to mallocr.o(i.__free$realloc) for free
    cjson.o(.data) refers to mallocr.o(i.realloc) for realloc
    cjson_utils.o(.text) refers to strlen.o(.text) for strlen
    cjson_utils.o(.text) refers to cjson.o(.text) for cJSON_malloc
    cjson_utils.o(.text) refers to memcpya.o(.text) for __aeabi_memcpy
    cjson_utils.o(.text) refers to strcmp.o(.text) for strcmp
    cjson_utils.o(.text) refers to tolower.o(.text) for tolower
    cjson_utils.o(.text) refers to printfa.o(i.__0sprintf) for __2sprintf
    cjson_utils.o(.text) refers to strcat.o(.text) for strcat
    cjson_utils.o(.text) refers to strrchr.o(.text) for strrchr
    cjson_utils.o(.text) refers to cdcmple.o(.text) for __aeabi_cdcmpeq
    cjson_utils.o(.text) refers to cjson_utils.o(.constdata) for invalid
    strtod.o(i.__hardfp_strtod) refers (Special) to iusefp.o(.text) for __I$use$fp
    strtod.o(i.__hardfp_strtod) refers to strtod.o(.text) for __strtod_int
    strtod.o(i.__softfp_strtod) refers (Special) to iusefp.o(.text) for __I$use$fp
    strtod.o(i.__softfp_strtod) refers to strtod.o(.text) for __strtod_int
    strtod.o(i.strtod) refers (Special) to iusefp.o(.text) for __I$use$fp
    strtod.o(i.strtod) refers to strtod.o(.text) for __strtod_int
    entry.o(.ARM.Collect$$$$00000000) refers (Special) to entry10a.o(.ARM.Collect$$$$0000000D) for __rt_final_cpp
    entry.o(.ARM.Collect$$$$00000000) refers (Special) to entry11a.o(.ARM.Collect$$$$0000000F) for __rt_final_exit
    entry.o(.ARM.Collect$$$$00000000) refers (Special) to entry7b.o(.ARM.Collect$$$$00000008) for _main_clock
    entry.o(.ARM.Collect$$$$00000000) refers (Special) to entry8b.o(.ARM.Collect$$$$0000000A) for _main_cpp_init
    entry.o(.ARM.Collect$$$$00000000) refers (Special) to entry9a.o(.ARM.Collect$$$$0000000B) for _main_init
    entry.o(.ARM.Collect$$$$00000000) refers (Special) to entry5.o(.ARM.Collect$$$$00000004) for _main_scatterload
    entry.o(.ARM.Collect$$$$00000000) refers (Special) to entry2.o(.ARM.Collect$$$$00000001) for _main_stk
    ldiv.o(.text) refers to uldiv.o(.text) for __aeabi_uldivmod
    printfb.o(i.__0fprintf$bare) refers to printfb.o(i._printf_core) for _printf_core
    printfb.o(i.__0fprintf$bare) refers to fputc.o(i.fputc) for fputc
    printfb.o(i.__0printf$bare) refers to printfb.o(i._printf_core) for _printf_core
    printfb.o(i.__0printf$bare) refers to fputc.o(i.fputc) for fputc
    printfb.o(i.__0printf$bare) refers to stdout.o(.data) for __stdout
    printfb.o(i.__0snprintf$bare) refers to printfb.o(i._printf_core) for _printf_core
    printfb.o(i.__0snprintf$bare) refers to printfb.o(i._snputc) for _snputc
    printfb.o(i.__0sprintf$bare) refers to printfb.o(i._printf_core) for _printf_core
    printfb.o(i.__0sprintf$bare) refers to printfb.o(i._sputc) for _sputc
    printfb.o(i.__0vfprintf$bare) refers to printfb.o(i._printf_core) for _printf_core
    printfb.o(i.__0vfprintf$bare) refers to fputc.o(i.fputc) for fputc
    printfb.o(i.__0vprintf$bare) refers to printfb.o(i._printf_core) for _printf_core
    printfb.o(i.__0vprintf$bare) refers to fputc.o(i.fputc) for fputc
    printfb.o(i.__0vprintf$bare) refers to stdout.o(.data) for __stdout
    printfb.o(i.__0vsnprintf$bare) refers to printfb.o(i._printf_core) for _printf_core
    printfb.o(i.__0vsnprintf$bare) refers to printfb.o(i._snputc) for _snputc
    printfb.o(i.__0vsprintf$bare) refers to printfb.o(i._printf_core) for _printf_core
    printfb.o(i.__0vsprintf$bare) refers to printfb.o(i._sputc) for _sputc
    printf0.o(i.__0fprintf$0) refers to printf0.o(i._printf_core) for _printf_core
    printf0.o(i.__0fprintf$0) refers to fputc.o(i.fputc) for fputc
    printf0.o(i.__0printf$0) refers to printf0.o(i._printf_core) for _printf_core
    printf0.o(i.__0printf$0) refers to fputc.o(i.fputc) for fputc
    printf0.o(i.__0printf$0) refers to stdout.o(.data) for __stdout
    printf0.o(i.__0snprintf$0) refers to printf0.o(i._printf_core) for _printf_core
    printf0.o(i.__0snprintf$0) refers to printf0.o(i._snputc) for _snputc
    printf0.o(i.__0sprintf$0) refers to printf0.o(i._printf_core) for _printf_core
    printf0.o(i.__0sprintf$0) refers to printf0.o(i._sputc) for _sputc
    printf0.o(i.__0vfprintf$0) refers to printf0.o(i._printf_core) for _printf_core
    printf0.o(i.__0vfprintf$0) refers to fputc.o(i.fputc) for fputc
    printf0.o(i.__0vprintf$0) refers to printf0.o(i._printf_core) for _printf_core
    printf0.o(i.__0vprintf$0) refers to fputc.o(i.fputc) for fputc
    printf0.o(i.__0vprintf$0) refers to stdout.o(.data) for __stdout
    printf0.o(i.__0vsnprintf$0) refers to printf0.o(i._printf_core) for _printf_core
    printf0.o(i.__0vsnprintf$0) refers to printf0.o(i._snputc) for _snputc
    printf0.o(i.__0vsprintf$0) refers to printf0.o(i._printf_core) for _printf_core
    printf0.o(i.__0vsprintf$0) refers to printf0.o(i._sputc) for _sputc
    printf1.o(i.__0fprintf$1) refers to printf1.o(i._printf_core) for _printf_core
    printf1.o(i.__0fprintf$1) refers to fputc.o(i.fputc) for fputc
    printf1.o(i.__0printf$1) refers to printf1.o(i._printf_core) for _printf_core
    printf1.o(i.__0printf$1) refers to fputc.o(i.fputc) for fputc
    printf1.o(i.__0printf$1) refers to stdout.o(.data) for __stdout
    printf1.o(i.__0snprintf$1) refers to printf1.o(i._printf_core) for _printf_core
    printf1.o(i.__0snprintf$1) refers to printf1.o(i._snputc) for _snputc
    printf1.o(i.__0sprintf$1) refers to printf1.o(i._printf_core) for _printf_core
    printf1.o(i.__0sprintf$1) refers to printf1.o(i._sputc) for _sputc
    printf1.o(i.__0vfprintf$1) refers to printf1.o(i._printf_core) for _printf_core
    printf1.o(i.__0vfprintf$1) refers to fputc.o(i.fputc) for fputc
    printf1.o(i.__0vprintf$1) refers to printf1.o(i._printf_core) for _printf_core
    printf1.o(i.__0vprintf$1) refers to fputc.o(i.fputc) for fputc
    printf1.o(i.__0vprintf$1) refers to stdout.o(.data) for __stdout
    printf1.o(i.__0vsnprintf$1) refers to printf1.o(i._printf_core) for _printf_core
    printf1.o(i.__0vsnprintf$1) refers to printf1.o(i._snputc) for _snputc
    printf1.o(i.__0vsprintf$1) refers to printf1.o(i._printf_core) for _printf_core
    printf1.o(i.__0vsprintf$1) refers to printf1.o(i._sputc) for _sputc
    printf1.o(i._printf_core) refers to uidiv.o(.text) for __aeabi_uidivmod
    printf2.o(i.__0fprintf$2) refers to printf2.o(i._printf_core) for _printf_core
    printf2.o(i.__0fprintf$2) refers to fputc.o(i.fputc) for fputc
    printf2.o(i.__0printf$2) refers to printf2.o(i._printf_core) for _printf_core
    printf2.o(i.__0printf$2) refers to fputc.o(i.fputc) for fputc
    printf2.o(i.__0printf$2) refers to stdout.o(.data) for __stdout
    printf2.o(i.__0snprintf$2) refers to printf2.o(i._printf_core) for _printf_core
    printf2.o(i.__0snprintf$2) refers to printf2.o(i._snputc) for _snputc
    printf2.o(i.__0sprintf$2) refers to printf2.o(i._printf_core) for _printf_core
    printf2.o(i.__0sprintf$2) refers to printf2.o(i._sputc) for _sputc
    printf2.o(i.__0vfprintf$2) refers to printf2.o(i._printf_core) for _printf_core
    printf2.o(i.__0vfprintf$2) refers to fputc.o(i.fputc) for fputc
    printf2.o(i.__0vprintf$2) refers to printf2.o(i._printf_core) for _printf_core
    printf2.o(i.__0vprintf$2) refers to fputc.o(i.fputc) for fputc
    printf2.o(i.__0vprintf$2) refers to stdout.o(.data) for __stdout
    printf2.o(i.__0vsnprintf$2) refers to printf2.o(i._printf_core) for _printf_core
    printf2.o(i.__0vsnprintf$2) refers to printf2.o(i._snputc) for _snputc
    printf2.o(i.__0vsprintf$2) refers to printf2.o(i._printf_core) for _printf_core
    printf2.o(i.__0vsprintf$2) refers to printf2.o(i._sputc) for _sputc
    printf3.o(i.__0fprintf$3) refers to printf3.o(i._printf_core) for _printf_core
    printf3.o(i.__0fprintf$3) refers to fputc.o(i.fputc) for fputc
    printf3.o(i.__0printf$3) refers to printf3.o(i._printf_core) for _printf_core
    printf3.o(i.__0printf$3) refers to fputc.o(i.fputc) for fputc
    printf3.o(i.__0printf$3) refers to stdout.o(.data) for __stdout
    printf3.o(i.__0snprintf$3) refers to printf3.o(i._printf_core) for _printf_core
    printf3.o(i.__0snprintf$3) refers to printf3.o(i._snputc) for _snputc
    printf3.o(i.__0sprintf$3) refers to printf3.o(i._printf_core) for _printf_core
    printf3.o(i.__0sprintf$3) refers to printf3.o(i._sputc) for _sputc
    printf3.o(i.__0vfprintf$3) refers to printf3.o(i._printf_core) for _printf_core
    printf3.o(i.__0vfprintf$3) refers to fputc.o(i.fputc) for fputc
    printf3.o(i.__0vprintf$3) refers to printf3.o(i._printf_core) for _printf_core
    printf3.o(i.__0vprintf$3) refers to fputc.o(i.fputc) for fputc
    printf3.o(i.__0vprintf$3) refers to stdout.o(.data) for __stdout
    printf3.o(i.__0vsnprintf$3) refers to printf3.o(i._printf_core) for _printf_core
    printf3.o(i.__0vsnprintf$3) refers to printf3.o(i._snputc) for _snputc
    printf3.o(i.__0vsprintf$3) refers to printf3.o(i._printf_core) for _printf_core
    printf3.o(i.__0vsprintf$3) refers to printf3.o(i._sputc) for _sputc
    printf3.o(i._printf_core) refers to uidiv.o(.text) for __aeabi_uidivmod
    printf4.o(i.__0fprintf$4) refers to printf4.o(i._printf_core) for _printf_core
    printf4.o(i.__0fprintf$4) refers to fputc.o(i.fputc) for fputc
    printf4.o(i.__0printf$4) refers to printf4.o(i._printf_core) for _printf_core
    printf4.o(i.__0printf$4) refers to fputc.o(i.fputc) for fputc
    printf4.o(i.__0printf$4) refers to stdout.o(.data) for __stdout
    printf4.o(i.__0snprintf$4) refers to printf4.o(i._printf_core) for _printf_core
    printf4.o(i.__0snprintf$4) refers to printf4.o(i._snputc) for _snputc
    printf4.o(i.__0sprintf$4) refers to printf4.o(i._printf_core) for _printf_core
    printf4.o(i.__0sprintf$4) refers to printf4.o(i._sputc) for _sputc
    printf4.o(i.__0vfprintf$4) refers to printf4.o(i._printf_core) for _printf_core
    printf4.o(i.__0vfprintf$4) refers to fputc.o(i.fputc) for fputc
    printf4.o(i.__0vprintf$4) refers to printf4.o(i._printf_core) for _printf_core
    printf4.o(i.__0vprintf$4) refers to fputc.o(i.fputc) for fputc
    printf4.o(i.__0vprintf$4) refers to stdout.o(.data) for __stdout
    printf4.o(i.__0vsnprintf$4) refers to printf4.o(i._printf_core) for _printf_core
    printf4.o(i.__0vsnprintf$4) refers to printf4.o(i._snputc) for _snputc
    printf4.o(i.__0vsprintf$4) refers to printf4.o(i._printf_core) for _printf_core
    printf4.o(i.__0vsprintf$4) refers to printf4.o(i._sputc) for _sputc
    printf4.o(i._printf_core) refers to uldiv.o(.text) for __aeabi_uldivmod
    printf5.o(i.__0fprintf$5) refers to printf5.o(i._printf_core) for _printf_core
    printf5.o(i.__0fprintf$5) refers to fputc.o(i.fputc) for fputc
    printf5.o(i.__0printf$5) refers to printf5.o(i._printf_core) for _printf_core
    printf5.o(i.__0printf$5) refers to fputc.o(i.fputc) for fputc
    printf5.o(i.__0printf$5) refers to stdout.o(.data) for __stdout
    printf5.o(i.__0snprintf$5) refers to printf5.o(i._printf_core) for _printf_core
    printf5.o(i.__0snprintf$5) refers to printf5.o(i._snputc) for _snputc
    printf5.o(i.__0sprintf$5) refers to printf5.o(i._printf_core) for _printf_core
    printf5.o(i.__0sprintf$5) refers to printf5.o(i._sputc) for _sputc
    printf5.o(i.__0vfprintf$5) refers to printf5.o(i._printf_core) for _printf_core
    printf5.o(i.__0vfprintf$5) refers to fputc.o(i.fputc) for fputc
    printf5.o(i.__0vprintf$5) refers to printf5.o(i._printf_core) for _printf_core
    printf5.o(i.__0vprintf$5) refers to fputc.o(i.fputc) for fputc
    printf5.o(i.__0vprintf$5) refers to stdout.o(.data) for __stdout
    printf5.o(i.__0vsnprintf$5) refers to printf5.o(i._printf_core) for _printf_core
    printf5.o(i.__0vsnprintf$5) refers to printf5.o(i._snputc) for _snputc
    printf5.o(i.__0vsprintf$5) refers to printf5.o(i._printf_core) for _printf_core
    printf5.o(i.__0vsprintf$5) refers to printf5.o(i._sputc) for _sputc
    printf5.o(i._printf_core) refers to uldiv.o(.text) for __aeabi_uldivmod
    printf6.o(i.__0fprintf$6) refers to printf6.o(i._printf_core) for _printf_core
    printf6.o(i.__0fprintf$6) refers to fputc.o(i.fputc) for fputc
    printf6.o(i.__0printf$6) refers to printf6.o(i._printf_core) for _printf_core
    printf6.o(i.__0printf$6) refers to fputc.o(i.fputc) for fputc
    printf6.o(i.__0printf$6) refers to stdout.o(.data) for __stdout
    printf6.o(i.__0snprintf$6) refers to printf6.o(i._printf_core) for _printf_core
    printf6.o(i.__0snprintf$6) refers to printf6.o(i._snputc) for _snputc
    printf6.o(i.__0sprintf$6) refers to printf6.o(i._printf_core) for _printf_core
    printf6.o(i.__0sprintf$6) refers to printf6.o(i._sputc) for _sputc
    printf6.o(i.__0vfprintf$6) refers to printf6.o(i._printf_core) for _printf_core
    printf6.o(i.__0vfprintf$6) refers to fputc.o(i.fputc) for fputc
    printf6.o(i.__0vprintf$6) refers to printf6.o(i._printf_core) for _printf_core
    printf6.o(i.__0vprintf$6) refers to fputc.o(i.fputc) for fputc
    printf6.o(i.__0vprintf$6) refers to stdout.o(.data) for __stdout
    printf6.o(i.__0vsnprintf$6) refers to printf6.o(i._printf_core) for _printf_core
    printf6.o(i.__0vsnprintf$6) refers to printf6.o(i._snputc) for _snputc
    printf6.o(i.__0vsprintf$6) refers to printf6.o(i._printf_core) for _printf_core
    printf6.o(i.__0vsprintf$6) refers to printf6.o(i._sputc) for _sputc
    printf6.o(i._printf_core) refers to printf6.o(i._printf_pre_padding) for _printf_pre_padding
    printf6.o(i._printf_core) refers to uidiv.o(.text) for __aeabi_uidivmod
    printf6.o(i._printf_core) refers to printf6.o(i._printf_post_padding) for _printf_post_padding
    printf7.o(i.__0fprintf$7) refers to printf7.o(i._printf_core) for _printf_core
    printf7.o(i.__0fprintf$7) refers to fputc.o(i.fputc) for fputc
    printf7.o(i.__0printf$7) refers to printf7.o(i._printf_core) for _printf_core
    printf7.o(i.__0printf$7) refers to fputc.o(i.fputc) for fputc
    printf7.o(i.__0printf$7) refers to stdout.o(.data) for __stdout
    printf7.o(i.__0snprintf$7) refers to printf7.o(i._printf_core) for _printf_core
    printf7.o(i.__0snprintf$7) refers to printf7.o(i._snputc) for _snputc
    printf7.o(i.__0sprintf$7) refers to printf7.o(i._printf_core) for _printf_core
    printf7.o(i.__0sprintf$7) refers to printf7.o(i._sputc) for _sputc
    printf7.o(i.__0vfprintf$7) refers to printf7.o(i._printf_core) for _printf_core
    printf7.o(i.__0vfprintf$7) refers to fputc.o(i.fputc) for fputc
    printf7.o(i.__0vprintf$7) refers to printf7.o(i._printf_core) for _printf_core
    printf7.o(i.__0vprintf$7) refers to fputc.o(i.fputc) for fputc
    printf7.o(i.__0vprintf$7) refers to stdout.o(.data) for __stdout
    printf7.o(i.__0vsnprintf$7) refers to printf7.o(i._printf_core) for _printf_core
    printf7.o(i.__0vsnprintf$7) refers to printf7.o(i._snputc) for _snputc
    printf7.o(i.__0vsprintf$7) refers to printf7.o(i._printf_core) for _printf_core
    printf7.o(i.__0vsprintf$7) refers to printf7.o(i._sputc) for _sputc
    printf7.o(i._printf_core) refers to printf7.o(i._printf_pre_padding) for _printf_pre_padding
    printf7.o(i._printf_core) refers to uldiv.o(.text) for __aeabi_uldivmod
    printf7.o(i._printf_core) refers to printf7.o(i._printf_post_padding) for _printf_post_padding
    printf8.o(i.__0fprintf$8) refers to printf8.o(i._printf_core) for _printf_core
    printf8.o(i.__0fprintf$8) refers to fputc.o(i.fputc) for fputc
    printf8.o(i.__0printf$8) refers to printf8.o(i._printf_core) for _printf_core
    printf8.o(i.__0printf$8) refers to fputc.o(i.fputc) for fputc
    printf8.o(i.__0printf$8) refers to stdout.o(.data) for __stdout
    printf8.o(i.__0snprintf$8) refers to printf8.o(i._printf_core) for _printf_core
    printf8.o(i.__0snprintf$8) refers to printf8.o(i._snputc) for _snputc
    printf8.o(i.__0sprintf$8) refers to printf8.o(i._printf_core) for _printf_core
    printf8.o(i.__0sprintf$8) refers to printf8.o(i._sputc) for _sputc
    printf8.o(i.__0vfprintf$8) refers to printf8.o(i._printf_core) for _printf_core
    printf8.o(i.__0vfprintf$8) refers to fputc.o(i.fputc) for fputc
    printf8.o(i.__0vprintf$8) refers to printf8.o(i._printf_core) for _printf_core
    printf8.o(i.__0vprintf$8) refers to fputc.o(i.fputc) for fputc
    printf8.o(i.__0vprintf$8) refers to stdout.o(.data) for __stdout
    printf8.o(i.__0vsnprintf$8) refers to printf8.o(i._printf_core) for _printf_core
    printf8.o(i.__0vsnprintf$8) refers to printf8.o(i._snputc) for _snputc
    printf8.o(i.__0vsprintf$8) refers to printf8.o(i._printf_core) for _printf_core
    printf8.o(i.__0vsprintf$8) refers to printf8.o(i._sputc) for _sputc
    printf8.o(i._printf_core) refers to printf8.o(i._printf_pre_padding) for _printf_pre_padding
    printf8.o(i._printf_core) refers to uldiv.o(.text) for __aeabi_uldivmod
    printf8.o(i._printf_core) refers to printf8.o(i._printf_post_padding) for _printf_post_padding
    printfa.o(i.__0fprintf) refers (Special) to iusefp.o(.text) for __I$use$fp
    printfa.o(i.__0fprintf) refers to printfa.o(i._printf_core) for _printf_core
    printfa.o(i.__0fprintf) refers to fputc.o(i.fputc) for fputc
    printfa.o(i.__0printf) refers (Special) to iusefp.o(.text) for __I$use$fp
    printfa.o(i.__0printf) refers to printfa.o(i._printf_core) for _printf_core
    printfa.o(i.__0printf) refers to fputc.o(i.fputc) for fputc
    printfa.o(i.__0printf) refers to stdout.o(.data) for __stdout
    printfa.o(i.__0snprintf) refers (Special) to iusefp.o(.text) for __I$use$fp
    printfa.o(i.__0snprintf) refers to printfa.o(i._printf_core) for _printf_core
    printfa.o(i.__0snprintf) refers to printfa.o(i._snputc) for _snputc
    printfa.o(i.__0sprintf) refers (Special) to iusefp.o(.text) for __I$use$fp
    printfa.o(i.__0sprintf) refers to printfa.o(i._printf_core) for _printf_core
    printfa.o(i.__0sprintf) refers to printfa.o(i._sputc) for _sputc
    printfa.o(i.__0vfprintf) refers (Special) to iusefp.o(.text) for __I$use$fp
    printfa.o(i.__0vfprintf) refers to printfa.o(i._printf_core) for _printf_core
    printfa.o(i.__0vfprintf) refers to fputc.o(i.fputc) for fputc
    printfa.o(i.__0vprintf) refers (Special) to iusefp.o(.text) for __I$use$fp
    printfa.o(i.__0vprintf) refers to printfa.o(i._printf_core) for _printf_core
    printfa.o(i.__0vprintf) refers to fputc.o(i.fputc) for fputc
    printfa.o(i.__0vprintf) refers to stdout.o(.data) for __stdout
    printfa.o(i.__0vsnprintf) refers (Special) to iusefp.o(.text) for __I$use$fp
    printfa.o(i.__0vsnprintf) refers to printfa.o(i._printf_core) for _printf_core
    printfa.o(i.__0vsnprintf) refers to printfa.o(i._snputc) for _snputc
    printfa.o(i.__0vsprintf) refers (Special) to iusefp.o(.text) for __I$use$fp
    printfa.o(i.__0vsprintf) refers to printfa.o(i._printf_core) for _printf_core
    printfa.o(i.__0vsprintf) refers to printfa.o(i._sputc) for _sputc
    printfa.o(i._fp_digits) refers (Special) to iusefp.o(.text) for __I$use$fp
    printfa.o(i._fp_digits) refers to dmul.o(.text) for __aeabi_dmul
    printfa.o(i._fp_digits) refers to ddiv.o(.text) for __aeabi_ddiv
    printfa.o(i._fp_digits) refers to cdrcmple.o(.text) for __aeabi_cdrcmple
    printfa.o(i._fp_digits) refers to dadd.o(.text) for __aeabi_dadd
    printfa.o(i._fp_digits) refers to dfixul.o(.text) for __aeabi_d2ulz
    printfa.o(i._fp_digits) refers to uldiv.o(.text) for __aeabi_uldivmod
    printfa.o(i._printf_core) refers (Special) to iusefp.o(.text) for __I$use$fp
    printfa.o(i._printf_core) refers to printfa.o(i._printf_pre_padding) for _printf_pre_padding
    printfa.o(i._printf_core) refers to uldiv.o(.text) for __aeabi_uldivmod
    printfa.o(i._printf_core) refers to printfa.o(i._printf_post_padding) for _printf_post_padding
    printfa.o(i._printf_core) refers to printfa.o(i._fp_digits) for _fp_digits
    printfa.o(i._printf_core) refers to uidiv.o(.text) for __aeabi_uidivmod
    printfa.o(i._printf_post_padding) refers (Special) to iusefp.o(.text) for __I$use$fp
    printfa.o(i._printf_pre_padding) refers (Special) to iusefp.o(.text) for __I$use$fp
    printfa.o(i._snputc) refers (Special) to iusefp.o(.text) for __I$use$fp
    printfa.o(i._sputc) refers (Special) to iusefp.o(.text) for __I$use$fp
    malloc.o(i.free) refers to mvars.o(.data) for __microlib_freelist
    malloc.o(i.malloc) refers to mvars.o(.data) for __microlib_freelist_initialised
    malloc.o(i.malloc) refers to mvars.o(.data) for __microlib_freelist
    malloc.o(i.malloc) refers to startup_stm32f4xx.o(HEAP) for __heap_base
    mallocr.o(i.__free$realloc) refers to mvars.o(.data) for __microlib_freelist
    mallocr.o(i.__malloc$realloc) refers to mallocr.o(i.internal_alloc) for internal_alloc
    mallocr.o(i.__malloc$realloc) refers to mvars.o(.data) for __microlib_freelist_initialised
    mallocr.o(i.__malloc$realloc) refers to startup_stm32f4xx.o(HEAP) for __heap_base
    mallocr.o(i.__malloc$realloc) refers to mvars.o(.data) for __microlib_freelist
    mallocr.o(i.internal_alloc) refers to memcpya.o(.text) for __aeabi_memcpy
    mallocr.o(i.internal_alloc) refers to mvars.o(.data) for __microlib_freelist
    mallocr.o(i.realloc) refers to mallocr.o(i.__free$realloc) for free
    mallocr.o(i.realloc) refers to mallocr.o(i.internal_alloc) for internal_alloc
    mallocr.o(i.realloc) refers to mallocr.o(i.__malloc$realloc) for malloc
    mallocr.o(i.realloc) refers to mvars.o(.data) for __microlib_freelist
    malloca.o(i.__aligned_malloc) refers to mvars.o(.data) for __microlib_freelist_initialised
    malloca.o(i.__aligned_malloc) refers to mvars.o(.data) for __microlib_freelist
    malloca.o(i.__aligned_malloc) refers to startup_stm32f4xx.o(HEAP) for __heap_base
    malloca.o(i.__free$memalign) refers to mvars.o(.data) for __microlib_freelist
    malloca.o(i.__malloc$memalign) refers to malloca.o(i.__aligned_malloc) for __aligned_malloc
    mallocra.o(i.__aligned_malloc$realloc) refers to mallocra.o(i.internal_alloc) for internal_alloc
    mallocra.o(i.__aligned_malloc$realloc) refers to mvars.o(.data) for __microlib_freelist_initialised
    mallocra.o(i.__aligned_malloc$realloc) refers to startup_stm32f4xx.o(HEAP) for __heap_base
    mallocra.o(i.__aligned_malloc$realloc) refers to mvars.o(.data) for __microlib_freelist
    mallocra.o(i.__free$realloc$memalign) refers to mvars.o(.data) for __microlib_freelist
    mallocra.o(i.__malloc$realloc$memalign) refers to mallocra.o(i.__aligned_malloc$realloc) for __aligned_malloc$realloc
    mallocra.o(i.__realloc$memalign) refers to mallocra.o(i.__free$realloc$memalign) for __free$realloc$memalign
    mallocra.o(i.__realloc$memalign) refers to mallocra.o(i.internal_alloc) for internal_alloc
    mallocra.o(i.__realloc$memalign) refers to mallocra.o(i.__malloc$realloc$memalign) for __malloc$realloc$memalign
    mallocra.o(i.__realloc$memalign) refers to mvars.o(.data) for __microlib_freelist
    mallocra.o(i.internal_alloc) refers to memcpya.o(.text) for __aeabi_memcpy
    mallocra.o(i.internal_alloc) refers to mvars.o(.data) for __microlib_freelist
    __0sscanf.o(.text) refers to scanf_char.o(.text) for __vfscanf_char
    __0sscanf.o(.text) refers to _sgetc.o(.text) for _sgetc
    scanf_fp.o(.text) refers (Special) to iusefp.o(.text) for __I$use$fp
    scanf_fp.o(.text) refers to dfltul.o(.text) for __aeabi_ul2d
    scanf_fp.o(.text) refers to dmul.o(.text) for __aeabi_dmul
    scanf_fp.o(.text) refers to ddiv.o(.text) for __aeabi_ddiv
    scanf_fp.o(.text) refers to scanf_fp.o(i._is_digit) for _is_digit
    scanf_fp.o(.text) refers to d2f.o(.text) for __aeabi_d2f
    dadd.o(.text) refers (Special) to iusefp.o(.text) for __I$use$fp
    dadd.o(.text) refers to llshl.o(.text) for __aeabi_llsl
    dadd.o(.text) refers to llsshr.o(.text) for __aeabi_lasr
    dadd.o(.text) refers to depilogue.o(.text) for _double_epilogue
    dmul.o(.text) refers (Special) to iusefp.o(.text) for __I$use$fp
    dmul.o(.text) refers to depilogue.o(.text) for _double_epilogue
    ffltl.o(.text) refers (Special) to iusefp.o(.text) for __I$use$fp
    ffltl.o(.text) refers to fepilogue.o(.text) for _float_epilogue
    dflti.o(.text) refers (Special) to iusefp.o(.text) for __I$use$fp
    dflti.o(.text) refers to depilogue.o(.text) for _double_epilogue
    dfixi.o(.text) refers (Special) to iusefp.o(.text) for __I$use$fp
    dfixi.o(.text) refers to llushr.o(.text) for __aeabi_llsr
    f2d.o(.text) refers (Special) to iusefp.o(.text) for __I$use$fp
    cdcmple.o(.text) refers (Special) to iusefp.o(.text) for __I$use$fp
    cdrcmple.o(.text) refers (Special) to iusefp.o(.text) for __I$use$fp
    d2f.o(.text) refers (Special) to iusefp.o(.text) for __I$use$fp
    d2f.o(.text) refers to fepilogue.o(.text) for _float_round
    entry2.o(.ARM.Collect$$$$00000001) refers to entry2.o(.ARM.Collect$$$$00002712) for __lit__00000000
    entry2.o(.ARM.Collect$$$$00002712) refers to startup_stm32f4xx.o(STACK) for __initial_sp
    entry2.o(__vectab_stack_and_reset_area) refers to startup_stm32f4xx.o(STACK) for __initial_sp
    entry2.o(__vectab_stack_and_reset_area) refers to entry.o(.ARM.Collect$$$$00000000) for __main
    entry5.o(.ARM.Collect$$$$00000004) refers to init.o(.text) for __scatterload
    entry9a.o(.ARM.Collect$$$$0000000B) refers to main.o(.text) for main
    entry9b.o(.ARM.Collect$$$$0000000C) refers to main.o(.text) for main
    fputc.o(i.fputc) refers (Special) to iusesemip.o(.text) for __I$use$semihosting$fputc
    fputc.o(i.fputc) refers (Special) to semi.o(.text) for __semihosting_library_function
    uldiv.o(.text) refers to llushr.o(.text) for __aeabi_llsr
    uldiv.o(.text) refers to llshl.o(.text) for __aeabi_llsl
    scanf_char.o(.text) refers to _scanf.o(.text) for __vfscanf
    scanf_char.o(.text) refers to isspace_c.o(.text) for isspace
    strtod.o(.text) refers to scanf_fp.o(.text) for _scanf_real
    strtod.o(.text) refers to _sgetc.o(.text) for _sgetc
    strtod.o(.text) refers to isspace_c.o(.text) for isspace
    depilogue.o(.text) refers to llshl.o(.text) for __aeabi_llsl
    depilogue.o(.text) refers to llushr.o(.text) for __aeabi_llsr
    ddiv.o(.text) refers to depilogue.o(.text) for _double_round
    dfltul.o(.text) refers to depilogue.o(.text) for _double_epilogue
    dfixul.o(.text) refers to llushr.o(.text) for __aeabi_llsr
    dfixul.o(.text) refers to llshl.o(.text) for __aeabi_llsl
    init.o(.text) refers to entry5.o(.ARM.Collect$$$$00000004) for __main_after_scatterload
    isspace_c.o(.text) refers to ctype_c.o(.text) for __ctype_lookup
    _scanf.o(.text) refers (Weak) to scanf_fp.o(.text) for _scanf_real
    ctype_c.o(.text) refers to ctype_c.o(.constdata) for .constdata
    scanf_fp.o(i._is_digit) refers (Special) to iusefp.o(.text) for __I$use$fp


==============================================================================

Removing Unused input sections from the image.

    Removing stm32f4xx_it.o(.emb_text), (8 bytes).
    Removing ano_usb.o(.emb_text), (8 bytes).
    Removing main.o(.emb_text), (8 bytes).
    Removing ano_scheduler.o(.emb_text), (8 bytes).
    Removing bsp_init.o(.emb_text), (8 bytes).
    Removing ano_dt.o(.emb_text), (8 bytes).
    Removing ano_rc.o(.emb_text), (8 bytes).
    Removing ano_of.o(.emb_text), (8 bytes).
    Removing ano_flyctrl.o(.emb_text), (8 bytes).
    Removing ano_uwb.o(.emb_text), (8 bytes).
    Removing ano_programctrl_user.o(.emb_text), (8 bytes).
    Removing ano_opmv_ctrl.o(.emb_text), (8 bytes).
    Removing ano_opmv_cbtracking_ctrl.o(.emb_text), (8 bytes).
    Removing ano_opmv_linetracking_ctrl.o(.emb_text), (8 bytes).
    Removing ano_of_decofusion.o(.emb_text), (8 bytes).
    Removing ano_fcdata.o(.emb_text), (8 bytes).
    Removing ano_filter.o(.emb_text), (8 bytes).
    Removing ano_imu.o(.emb_text), (8 bytes).
    Removing ano_math.o(.emb_text), (8 bytes).
    Removing ano_motioncal.o(.emb_text), (8 bytes).
    Removing ano_navigate.o(.emb_text), (8 bytes).
    Removing ano_navigate.o(.text), (216 bytes).
    Removing ano_pid.o(.emb_text), (8 bytes).
    Removing ano_sensor_basic.o(.emb_text), (8 bytes).
    Removing ano_altctrl.o(.emb_text), (8 bytes).
    Removing ano_attctrl.o(.emb_text), (8 bytes).
    Removing ano_flightctrl.o(.emb_text), (8 bytes).
    Removing ano_locctrl.o(.emb_text), (8 bytes).
    Removing ano_magprocess.o(.emb_text), (8 bytes).
    Removing ano_motorctrl.o(.emb_text), (8 bytes).
    Removing ano_power.o(.emb_text), (8 bytes).
    Removing ano_flightdatacal.o(.emb_text), (8 bytes).
    Removing drv_led.o(.emb_text), (8 bytes).
    Removing drv_adc.o(.emb_text), (8 bytes).
    Removing ano_parameter.o(.emb_text), (8 bytes).
    Removing drv_spi.o(.emb_text), (8 bytes).
    Removing drv_pwm_out.o(.emb_text), (8 bytes).
    Removing drv_time.o(.emb_text), (8 bytes).
    Removing drv_usart.o(.emb_text), (8 bytes).
    Removing drv_ak8975.o(.emb_text), (8 bytes).
    Removing drv_icm20602.o(.emb_text), (8 bytes).
    Removing drv_icm20602.o(.text), (776 bytes).
    Removing drv_icm20602.o(.bss), (14 bytes).
    Removing drv_spl06.o(.emb_text), (8 bytes).
    Removing drv_w25qxx.o(.emb_text), (8 bytes).
    Removing usbd_stm32f4xx_fs.o(.emb_text), (8 bytes).
    Removing drv_gps.o(.emb_text), (8 bytes).
    Removing drv_heating.o(.emb_text), (8 bytes).
    Removing drv_laser.o(.emb_text), (8 bytes).
    Removing drv_laser.o(.text), (260 bytes).
    Removing drv_laser.o(.bss), (9 bytes).
    Removing drv_openmv.o(.emb_text), (8 bytes).
    Removing drv_up_flow.o(.emb_text), (8 bytes).
    Removing drv_bmi088.o(.emb_text), (8 bytes).
    Removing drv_bsp.o(.emb_text), (8 bytes).
    Removing drv_rcin.o(.emb_text), (8 bytes).
    Removing misc.o(.emb_text), (8 bytes).
    Removing stm32f4xx_adc.o(.emb_text), (8 bytes).
    Removing stm32f4xx_dbgmcu.o(.emb_text), (8 bytes).
    Removing stm32f4xx_dbgmcu.o(.text), (288 bytes).
    Removing stm32f4xx_dma.o(.emb_text), (8 bytes).
    Removing stm32f4xx_exti.o(.emb_text), (8 bytes).
    Removing stm32f4xx_flash.o(.emb_text), (8 bytes).
    Removing stm32f4xx_flash.o(.text), (1944 bytes).
    Removing stm32f4xx_gpio.o(.emb_text), (8 bytes).
    Removing stm32f4xx_i2c.o(.emb_text), (8 bytes).
    Removing stm32f4xx_i2c.o(.text), (3496 bytes).
    Removing stm32f4xx_pwr.o(.emb_text), (8 bytes).
    Removing stm32f4xx_pwr.o(.text), (580 bytes).
    Removing stm32f4xx_rcc.o(.emb_text), (8 bytes).
    Removing stm32f4xx_spi.o(.emb_text), (8 bytes).
    Removing stm32f4xx_syscfg.o(.emb_text), (8 bytes).
    Removing stm32f4xx_syscfg.o(.text), (388 bytes).
    Removing stm32f4xx_tim.o(.emb_text), (8 bytes).
    Removing stm32f4xx_usart.o(.emb_text), (8 bytes).
    Removing system_stm32f4xx.o(.emb_text), (8 bytes).
    Removing startup_stm32f4xx.o(HEAP), (1024 bytes).
    Removing usbd_core.o(.emb_text), (0 bytes).
    Removing ano_imu_calibration.o(.emb_text), (8 bytes).
    Removing ano_imu_data.o(.emb_text), (8 bytes).
    Removing ano_imu_task.o(.emb_text), (8 bytes).
    Removing ultr.o(.emb_text), (8 bytes).
    Removing exti.o(.emb_text), (8 bytes).
    Removing exti.o(.text), (76 bytes).
    Removing task1.o(.emb_text), (8 bytes).
    Removing cjson.o(.text), (8332 bytes).
    Removing cjson.o(.bss), (15 bytes).
    Removing cjson.o(.data), (20 bytes).
    Removing cjson_utils.o(.text), (4092 bytes).
    Removing cjson_utils.o(.constdata), (40 bytes).
    Removing ddiv.o(.text), (222 bytes).
    Removing dfltul.o(.text), (24 bytes).
    Removing dfixul.o(.text), (48 bytes).

93 unused section(s) (total 22440 bytes) removed from the image.

==============================================================================

Image Symbol Table

    Local Symbols

    Symbol Name                              Value     Ov Type        Size  Object(Section)

    ../clib/../cmprslib/zerorunl2.c          0x00000000   Number         0  __dczerorl2.o ABSOLUTE
    ../clib/microlib/ctype/ctype.c           0x00000000   Number         0  isspace_c.o ABSOLUTE
    ../clib/microlib/ctype/ctype.c           0x00000000   Number         0  ctype_c.o ABSOLUTE
    ../clib/microlib/ctype/tolower.c         0x00000000   Number         0  tolower.o ABSOLUTE
    ../clib/microlib/division.c              0x00000000   Number         0  uldiv.o ABSOLUTE
    ../clib/microlib/division.c              0x00000000   Number         0  uidiv.o ABSOLUTE
    ../clib/microlib/division.c              0x00000000   Number         0  ldiv.o ABSOLUTE
    ../clib/microlib/init/entry.s            0x00000000   Number         0  entry10a.o ABSOLUTE
    ../clib/microlib/init/entry.s            0x00000000   Number         0  entry9b.o ABSOLUTE
    ../clib/microlib/init/entry.s            0x00000000   Number         0  entry2.o ABSOLUTE
    ../clib/microlib/init/entry.s            0x00000000   Number         0  entry7b.o ABSOLUTE
    ../clib/microlib/init/entry.s            0x00000000   Number         0  entry11b.o ABSOLUTE
    ../clib/microlib/init/entry.s            0x00000000   Number         0  entry.o ABSOLUTE
    ../clib/microlib/init/entry.s            0x00000000   Number         0  entry7a.o ABSOLUTE
    ../clib/microlib/init/entry.s            0x00000000   Number         0  entry5.o ABSOLUTE
    ../clib/microlib/init/entry.s            0x00000000   Number         0  entry8a.o ABSOLUTE
    ../clib/microlib/init/entry.s            0x00000000   Number         0  entry11a.o ABSOLUTE
    ../clib/microlib/init/entry.s            0x00000000   Number         0  entry10b.o ABSOLUTE
    ../clib/microlib/init/entry.s            0x00000000   Number         0  entry8b.o ABSOLUTE
    ../clib/microlib/init/entry.s            0x00000000   Number         0  entry9a.o ABSOLUTE
    ../clib/microlib/longlong.c              0x00000000   Number         0  llshl.o ABSOLUTE
    ../clib/microlib/longlong.c              0x00000000   Number         0  llushr.o ABSOLUTE
    ../clib/microlib/longlong.c              0x00000000   Number         0  llsshr.o ABSOLUTE
    ../clib/microlib/malloc/malloc.c         0x00000000   Number         0  malloc.o ABSOLUTE
    ../clib/microlib/malloc/malloc.c         0x00000000   Number         0  mallocra.o ABSOLUTE
    ../clib/microlib/malloc/malloc.c         0x00000000   Number         0  mallocr.o ABSOLUTE
    ../clib/microlib/malloc/malloc.c         0x00000000   Number         0  malloca.o ABSOLUTE
    ../clib/microlib/malloc/mvars.c          0x00000000   Number         0  mvars.o ABSOLUTE
    ../clib/microlib/printf/printf.c         0x00000000   Number         0  printf6.o ABSOLUTE
    ../clib/microlib/printf/printf.c         0x00000000   Number         0  printf7.o ABSOLUTE
    ../clib/microlib/printf/printf.c         0x00000000   Number         0  printf8.o ABSOLUTE
    ../clib/microlib/printf/printf.c         0x00000000   Number         0  printfa.o ABSOLUTE
    ../clib/microlib/printf/printf.c         0x00000000   Number         0  printfb.o ABSOLUTE
    ../clib/microlib/printf/printf.c         0x00000000   Number         0  printf0.o ABSOLUTE
    ../clib/microlib/printf/printf.c         0x00000000   Number         0  printf5.o ABSOLUTE
    ../clib/microlib/printf/printf.c         0x00000000   Number         0  printf4.o ABSOLUTE
    ../clib/microlib/printf/printf.c         0x00000000   Number         0  printf3.o ABSOLUTE
    ../clib/microlib/printf/printf.c         0x00000000   Number         0  printf2.o ABSOLUTE
    ../clib/microlib/printf/printf.c         0x00000000   Number         0  printf1.o ABSOLUTE
    ../clib/microlib/printf/stubs.s          0x00000000   Number         0  stubs.o ABSOLUTE
    ../clib/microlib/stdio/fputc.c           0x00000000   Number         0  fputc.o ABSOLUTE
    ../clib/microlib/stdio/semi.s            0x00000000   Number         0  semi.o ABSOLUTE
    ../clib/microlib/stdio/streams.c         0x00000000   Number         0  stdout.o ABSOLUTE
    ../clib/microlib/string/memcpy.c         0x00000000   Number         0  memcpya.o ABSOLUTE
    ../clib/microlib/string/memcpy.c         0x00000000   Number         0  memcpyb.o ABSOLUTE
    ../clib/microlib/string/memset.c         0x00000000   Number         0  memseta.o ABSOLUTE
    ../clib/microlib/string/strcat.c         0x00000000   Number         0  strcat.o ABSOLUTE
    ../clib/microlib/string/strcmp.c         0x00000000   Number         0  strcmp.o ABSOLUTE
    ../clib/microlib/string/strcpy.c         0x00000000   Number         0  strcpy.o ABSOLUTE
    ../clib/microlib/string/strlen.c         0x00000000   Number         0  strlen.o ABSOLUTE
    ../clib/microlib/string/strncmp.c        0x00000000   Number         0  strncmp.o ABSOLUTE
    ../clib/microlib/string/strrchr.c        0x00000000   Number         0  strrchr.o ABSOLUTE
    ../clib/microlib/stubs.s                 0x00000000   Number         0  iusesemip.o ABSOLUTE
    ../clib/microlib/stubs.s                 0x00000000   Number         0  iusefp.o ABSOLUTE
    ../clib/scanf.c                          0x00000000   Number         0  scanf_fp.o ABSOLUTE
    ../clib/scanf.c                          0x00000000   Number         0  scanf_char.o ABSOLUTE
    ../clib/scanf.c                          0x00000000   Number         0  _scanf.o ABSOLUTE
    ../clib/scanf.c                          0x00000000   Number         0  __0sscanf.o ABSOLUTE
    ../clib/scanf.c                          0x00000000   Number         0  _sgetc.o ABSOLUTE
    ../clib/scanf.c                          0x00000000   Number         0  strtod.o ABSOLUTE
    ../fplib/microlib/d2f.c                  0x00000000   Number         0  d2f.o ABSOLUTE
    ../fplib/microlib/f2d.c                  0x00000000   Number         0  f2d.o ABSOLUTE
    ../fplib/microlib/fpadd.c                0x00000000   Number         0  dadd.o ABSOLUTE
    ../fplib/microlib/fpdiv.c                0x00000000   Number         0  ddiv.o ABSOLUTE
    ../fplib/microlib/fpepilogue.c           0x00000000   Number         0  fepilogue.o ABSOLUTE
    ../fplib/microlib/fpepilogue.c           0x00000000   Number         0  depilogue.o ABSOLUTE
    ../fplib/microlib/fpfix.c                0x00000000   Number         0  dfixi.o ABSOLUTE
    ../fplib/microlib/fpfix.c                0x00000000   Number         0  dfixul.o ABSOLUTE
    ../fplib/microlib/fpflt.c                0x00000000   Number         0  dflti.o ABSOLUTE
    ../fplib/microlib/fpflt.c                0x00000000   Number         0  ffltl.o ABSOLUTE
    ../fplib/microlib/fpflt.c                0x00000000   Number         0  dfltul.o ABSOLUTE
    ../fplib/microlib/fpmul.c                0x00000000   Number         0  dmul.o ABSOLUTE
    ../mathlib/strtod.c                      0x00000000   Number         0  strtod.o ABSOLUTE
    D:\Keil_v5\MDK-Packs\cJSON\1.0.0\cJSON.c 0x00000000   Number         0  cjson.o ABSOLUTE
    D:\Keil_v5\MDK-Packs\cJSON\1.0.0\cJSON_Utils.c 0x00000000   Number         0  cjson_utils.o ABSOLUTE
    Libraries\CMSIS\ST\STM32F4xx\Source\Templates\arm\startup_stm32f4xx.s 0x00000000   Number         0  startup_stm32f4xx.o ABSOLUTE
    Libraries\CMSIS\ST\STM32F4xx\Source\Templates\system_stm32f4xx.c 0x00000000   Number         0  system_stm32f4xx.o ABSOLUTE
    Libraries\STM32F4xx_StdPeriph_Driver\src\misc.c 0x00000000   Number         0  misc.o ABSOLUTE
    Libraries\STM32F4xx_StdPeriph_Driver\src\stm32f4xx_adc.c 0x00000000   Number         0  stm32f4xx_adc.o ABSOLUTE
    Libraries\STM32F4xx_StdPeriph_Driver\src\stm32f4xx_dbgmcu.c 0x00000000   Number         0  stm32f4xx_dbgmcu.o ABSOLUTE
    Libraries\STM32F4xx_StdPeriph_Driver\src\stm32f4xx_dma.c 0x00000000   Number         0  stm32f4xx_dma.o ABSOLUTE
    Libraries\STM32F4xx_StdPeriph_Driver\src\stm32f4xx_exti.c 0x00000000   Number         0  stm32f4xx_exti.o ABSOLUTE
    Libraries\STM32F4xx_StdPeriph_Driver\src\stm32f4xx_flash.c 0x00000000   Number         0  stm32f4xx_flash.o ABSOLUTE
    Libraries\STM32F4xx_StdPeriph_Driver\src\stm32f4xx_gpio.c 0x00000000   Number         0  stm32f4xx_gpio.o ABSOLUTE
    Libraries\STM32F4xx_StdPeriph_Driver\src\stm32f4xx_i2c.c 0x00000000   Number         0  stm32f4xx_i2c.o ABSOLUTE
    Libraries\STM32F4xx_StdPeriph_Driver\src\stm32f4xx_pwr.c 0x00000000   Number         0  stm32f4xx_pwr.o ABSOLUTE
    Libraries\STM32F4xx_StdPeriph_Driver\src\stm32f4xx_rcc.c 0x00000000   Number         0  stm32f4xx_rcc.o ABSOLUTE
    Libraries\STM32F4xx_StdPeriph_Driver\src\stm32f4xx_spi.c 0x00000000   Number         0  stm32f4xx_spi.o ABSOLUTE
    Libraries\STM32F4xx_StdPeriph_Driver\src\stm32f4xx_syscfg.c 0x00000000   Number         0  stm32f4xx_syscfg.o ABSOLUTE
    Libraries\STM32F4xx_StdPeriph_Driver\src\stm32f4xx_tim.c 0x00000000   Number         0  stm32f4xx_tim.o ABSOLUTE
    Libraries\STM32F4xx_StdPeriph_Driver\src\stm32f4xx_usart.c 0x00000000   Number         0  stm32f4xx_usart.o ABSOLUTE
    Libraries\USBStack\SRC\usbd_core.c       0x00000000   Number         0  usbd_core.o ABSOLUTE
    Libraries\USBStack\SRC\usbd_core_hid.c   0x00000000   Number         0  usbd_core_hid.o ABSOLUTE
    Libraries\USBStack\SRC\usbd_hid.c        0x00000000   Number         0  usbd_hid.o ABSOLUTE
    Libraries\\CMSIS\\ST\\STM32F4xx\\Source\\Templates\\system_stm32f4xx.c 0x00000000   Number         0  system_stm32f4xx.o ABSOLUTE
    Libraries\\STM32F4xx_StdPeriph_Driver\\src\\misc.c 0x00000000   Number         0  misc.o ABSOLUTE
    Libraries\\STM32F4xx_StdPeriph_Driver\\src\\stm32f4xx_adc.c 0x00000000   Number         0  stm32f4xx_adc.o ABSOLUTE
    Libraries\\STM32F4xx_StdPeriph_Driver\\src\\stm32f4xx_dbgmcu.c 0x00000000   Number         0  stm32f4xx_dbgmcu.o ABSOLUTE
    Libraries\\STM32F4xx_StdPeriph_Driver\\src\\stm32f4xx_dma.c 0x00000000   Number         0  stm32f4xx_dma.o ABSOLUTE
    Libraries\\STM32F4xx_StdPeriph_Driver\\src\\stm32f4xx_exti.c 0x00000000   Number         0  stm32f4xx_exti.o ABSOLUTE
    Libraries\\STM32F4xx_StdPeriph_Driver\\src\\stm32f4xx_flash.c 0x00000000   Number         0  stm32f4xx_flash.o ABSOLUTE
    Libraries\\STM32F4xx_StdPeriph_Driver\\src\\stm32f4xx_gpio.c 0x00000000   Number         0  stm32f4xx_gpio.o ABSOLUTE
    Libraries\\STM32F4xx_StdPeriph_Driver\\src\\stm32f4xx_i2c.c 0x00000000   Number         0  stm32f4xx_i2c.o ABSOLUTE
    Libraries\\STM32F4xx_StdPeriph_Driver\\src\\stm32f4xx_pwr.c 0x00000000   Number         0  stm32f4xx_pwr.o ABSOLUTE
    Libraries\\STM32F4xx_StdPeriph_Driver\\src\\stm32f4xx_rcc.c 0x00000000   Number         0  stm32f4xx_rcc.o ABSOLUTE
    Libraries\\STM32F4xx_StdPeriph_Driver\\src\\stm32f4xx_spi.c 0x00000000   Number         0  stm32f4xx_spi.o ABSOLUTE
    Libraries\\STM32F4xx_StdPeriph_Driver\\src\\stm32f4xx_syscfg.c 0x00000000   Number         0  stm32f4xx_syscfg.o ABSOLUTE
    Libraries\\STM32F4xx_StdPeriph_Driver\\src\\stm32f4xx_tim.c 0x00000000   Number         0  stm32f4xx_tim.o ABSOLUTE
    Libraries\\STM32F4xx_StdPeriph_Driver\\src\\stm32f4xx_usart.c 0x00000000   Number         0  stm32f4xx_usart.o ABSOLUTE
    Libraries\\USBStack\\SRC\\usbd_core.c    0x00000000   Number         0  usbd_core.o ABSOLUTE
    SRC\AnoImu\Ano_Imu_Calibration.c         0x00000000   Number         0  ano_imu_calibration.o ABSOLUTE
    SRC\AnoImu\Ano_Imu_Data.c                0x00000000   Number         0  ano_imu_data.o ABSOLUTE
    SRC\AnoImu\Ano_Imu_Task.c                0x00000000   Number         0  ano_imu_task.o ABSOLUTE
    SRC\EXTI\EXTI.c                          0x00000000   Number         0  exti.o ABSOLUTE
    SRC\\AnoImu\\Ano_Imu_Calibration.c       0x00000000   Number         0  ano_imu_calibration.o ABSOLUTE
    SRC\\AnoImu\\Ano_Imu_Data.c              0x00000000   Number         0  ano_imu_data.o ABSOLUTE
    SRC\\AnoImu\\Ano_Imu_Task.c              0x00000000   Number         0  ano_imu_task.o ABSOLUTE
    SRC\\EXTI\\EXTI.c                        0x00000000   Number         0  exti.o ABSOLUTE
    SRC\\applications\\Ano_DT.c              0x00000000   Number         0  ano_dt.o ABSOLUTE
    SRC\\applications\\Ano_FlyCtrl.c         0x00000000   Number         0  ano_flyctrl.o ABSOLUTE
    SRC\\applications\\Ano_OF.c              0x00000000   Number         0  ano_of.o ABSOLUTE
    SRC\\applications\\Ano_OF_DecoFusion.c   0x00000000   Number         0  ano_of_decofusion.o ABSOLUTE
    SRC\\applications\\Ano_OPMV_CBTracking_Ctrl.c 0x00000000   Number         0  ano_opmv_cbtracking_ctrl.o ABSOLUTE
    SRC\\applications\\Ano_OPMV_Ctrl.c       0x00000000   Number         0  ano_opmv_ctrl.o ABSOLUTE
    SRC\\applications\\Ano_OPMV_LineTracking_Ctrl.c 0x00000000   Number         0  ano_opmv_linetracking_ctrl.o ABSOLUTE
    SRC\\applications\\Ano_Parameter.c       0x00000000   Number         0  ano_parameter.o ABSOLUTE
    SRC\\applications\\Ano_ProgramCtrl_User.c 0x00000000   Number         0  ano_programctrl_user.o ABSOLUTE
    SRC\\applications\\Ano_RC.c              0x00000000   Number         0  ano_rc.o ABSOLUTE
    SRC\\applications\\Ano_Scheduler.c       0x00000000   Number         0  ano_scheduler.o ABSOLUTE
    SRC\\applications\\Ano_USB.c             0x00000000   Number         0  ano_usb.o ABSOLUTE
    SRC\\applications\\Ano_UWB.c             0x00000000   Number         0  ano_uwb.o ABSOLUTE
    SRC\\applications\\BSP_Init.c            0x00000000   Number         0  bsp_init.o ABSOLUTE
    SRC\\applications\\main.c                0x00000000   Number         0  main.o ABSOLUTE
    SRC\\applications\\stm32f4xx_it.c        0x00000000   Number         0  stm32f4xx_it.o ABSOLUTE
    SRC\\chao\\ultr.c                        0x00000000   Number         0  ultr.o ABSOLUTE
    SRC\\drivers\\Drv_BSP.c                  0x00000000   Number         0  drv_bsp.o ABSOLUTE
    SRC\\drivers\\Drv_OpenMV.c               0x00000000   Number         0  drv_openmv.o ABSOLUTE
    SRC\\drivers\\Drv_RcIn.c                 0x00000000   Number         0  drv_rcin.o ABSOLUTE
    SRC\\drivers\\Drv_UP_Flow.c              0x00000000   Number         0  drv_up_flow.o ABSOLUTE
    SRC\\drivers\\Drv_adc.c                  0x00000000   Number         0  drv_adc.o ABSOLUTE
    SRC\\drivers\\Drv_ak8975.c               0x00000000   Number         0  drv_ak8975.o ABSOLUTE
    SRC\\drivers\\Drv_bmi088.c               0x00000000   Number         0  drv_bmi088.o ABSOLUTE
    SRC\\drivers\\Drv_gps.c                  0x00000000   Number         0  drv_gps.o ABSOLUTE
    SRC\\drivers\\Drv_heating.c              0x00000000   Number         0  drv_heating.o ABSOLUTE
    SRC\\drivers\\Drv_icm20602.c             0x00000000   Number         0  drv_icm20602.o ABSOLUTE
    SRC\\drivers\\Drv_laser.c                0x00000000   Number         0  drv_laser.o ABSOLUTE
    SRC\\drivers\\Drv_led.c                  0x00000000   Number         0  drv_led.o ABSOLUTE
    SRC\\drivers\\Drv_pwm_out.c              0x00000000   Number         0  drv_pwm_out.o ABSOLUTE
    SRC\\drivers\\Drv_spi.c                  0x00000000   Number         0  drv_spi.o ABSOLUTE
    SRC\\drivers\\Drv_spl06.c                0x00000000   Number         0  drv_spl06.o ABSOLUTE
    SRC\\drivers\\Drv_time.c                 0x00000000   Number         0  drv_time.o ABSOLUTE
    SRC\\drivers\\Drv_usart.c                0x00000000   Number         0  drv_usart.o ABSOLUTE
    SRC\\drivers\\Drv_w25qxx.c               0x00000000   Number         0  drv_w25qxx.o ABSOLUTE
    SRC\\drivers\\usbd_STM32F4xx_FS.c        0x00000000   Number         0  usbd_stm32f4xx_fs.o ABSOLUTE
    SRC\\fc_general\\Ano_FcData.c            0x00000000   Number         0  ano_fcdata.o ABSOLUTE
    SRC\\fc_general\\Ano_Filter.c            0x00000000   Number         0  ano_filter.o ABSOLUTE
    SRC\\fc_general\\Ano_Imu.c               0x00000000   Number         0  ano_imu.o ABSOLUTE
    SRC\\fc_general\\Ano_Math.c              0x00000000   Number         0  ano_math.o ABSOLUTE
    SRC\\fc_general\\Ano_MotionCal.c         0x00000000   Number         0  ano_motioncal.o ABSOLUTE
    SRC\\fc_general\\Ano_Navigate.c          0x00000000   Number         0  ano_navigate.o ABSOLUTE
    SRC\\fc_general\\Ano_Pid.c               0x00000000   Number         0  ano_pid.o ABSOLUTE
    SRC\\fc_general\\Ano_Sensor_Basic.c      0x00000000   Number         0  ano_sensor_basic.o ABSOLUTE
    SRC\\fc_specific\\Ano_AltCtrl.c          0x00000000   Number         0  ano_altctrl.o ABSOLUTE
    SRC\\fc_specific\\Ano_AttCtrl.c          0x00000000   Number         0  ano_attctrl.o ABSOLUTE
    SRC\\fc_specific\\Ano_FlightCtrl.c       0x00000000   Number         0  ano_flightctrl.o ABSOLUTE
    SRC\\fc_specific\\Ano_FlightDataCal.c    0x00000000   Number         0  ano_flightdatacal.o ABSOLUTE
    SRC\\fc_specific\\Ano_LocCtrl.c          0x00000000   Number         0  ano_locctrl.o ABSOLUTE
    SRC\\fc_specific\\Ano_MagProcess.c       0x00000000   Number         0  ano_magprocess.o ABSOLUTE
    SRC\\fc_specific\\Ano_MotorCtrl.c        0x00000000   Number         0  ano_motorctrl.o ABSOLUTE
    SRC\\fc_specific\\Ano_Power.c            0x00000000   Number         0  ano_power.o ABSOLUTE
    SRC\\task\\task1.c                       0x00000000   Number         0  task1.o ABSOLUTE
    SRC\applications\Ano_DT.c                0x00000000   Number         0  ano_dt.o ABSOLUTE
    SRC\applications\Ano_FlyCtrl.c           0x00000000   Number         0  ano_flyctrl.o ABSOLUTE
    SRC\applications\Ano_OF.c                0x00000000   Number         0  ano_of.o ABSOLUTE
    SRC\applications\Ano_OF_DecoFusion.c     0x00000000   Number         0  ano_of_decofusion.o ABSOLUTE
    SRC\applications\Ano_OPMV_CBTracking_Ctrl.c 0x00000000   Number         0  ano_opmv_cbtracking_ctrl.o ABSOLUTE
    SRC\applications\Ano_OPMV_Ctrl.c         0x00000000   Number         0  ano_opmv_ctrl.o ABSOLUTE
    SRC\applications\Ano_OPMV_LineTracking_Ctrl.c 0x00000000   Number         0  ano_opmv_linetracking_ctrl.o ABSOLUTE
    SRC\applications\Ano_Parameter.c         0x00000000   Number         0  ano_parameter.o ABSOLUTE
    SRC\applications\Ano_ProgramCtrl_User.c  0x00000000   Number         0  ano_programctrl_user.o ABSOLUTE
    SRC\applications\Ano_RC.c                0x00000000   Number         0  ano_rc.o ABSOLUTE
    SRC\applications\Ano_Scheduler.c         0x00000000   Number         0  ano_scheduler.o ABSOLUTE
    SRC\applications\Ano_USB.c               0x00000000   Number         0  ano_usb.o ABSOLUTE
    SRC\applications\Ano_UWB.c               0x00000000   Number         0  ano_uwb.o ABSOLUTE
    SRC\applications\BSP_Init.c              0x00000000   Number         0  bsp_init.o ABSOLUTE
    SRC\applications\main.c                  0x00000000   Number         0  main.o ABSOLUTE
    SRC\applications\stm32f4xx_it.c          0x00000000   Number         0  stm32f4xx_it.o ABSOLUTE
    SRC\applications\usb_config.c            0x00000000   Number         0  usb_config.o ABSOLUTE
    SRC\chao\ultr.c                          0x00000000   Number         0  ultr.o ABSOLUTE
    SRC\drivers\Drv_BSP.c                    0x00000000   Number         0  drv_bsp.o ABSOLUTE
    SRC\drivers\Drv_OpenMV.c                 0x00000000   Number         0  drv_openmv.o ABSOLUTE
    SRC\drivers\Drv_RcIn.c                   0x00000000   Number         0  drv_rcin.o ABSOLUTE
    SRC\drivers\Drv_UP_Flow.c                0x00000000   Number         0  drv_up_flow.o ABSOLUTE
    SRC\drivers\Drv_adc.c                    0x00000000   Number         0  drv_adc.o ABSOLUTE
    SRC\drivers\Drv_ak8975.c                 0x00000000   Number         0  drv_ak8975.o ABSOLUTE
    SRC\drivers\Drv_bmi088.c                 0x00000000   Number         0  drv_bmi088.o ABSOLUTE
    SRC\drivers\Drv_gps.c                    0x00000000   Number         0  drv_gps.o ABSOLUTE
    SRC\drivers\Drv_heating.c                0x00000000   Number         0  drv_heating.o ABSOLUTE
    SRC\drivers\Drv_icm20602.c               0x00000000   Number         0  drv_icm20602.o ABSOLUTE
    SRC\drivers\Drv_laser.c                  0x00000000   Number         0  drv_laser.o ABSOLUTE
    SRC\drivers\Drv_led.c                    0x00000000   Number         0  drv_led.o ABSOLUTE
    SRC\drivers\Drv_pwm_out.c                0x00000000   Number         0  drv_pwm_out.o ABSOLUTE
    SRC\drivers\Drv_spi.c                    0x00000000   Number         0  drv_spi.o ABSOLUTE
    SRC\drivers\Drv_spl06.c                  0x00000000   Number         0  drv_spl06.o ABSOLUTE
    SRC\drivers\Drv_time.c                   0x00000000   Number         0  drv_time.o ABSOLUTE
    SRC\drivers\Drv_usart.c                  0x00000000   Number         0  drv_usart.o ABSOLUTE
    SRC\drivers\Drv_w25qxx.c                 0x00000000   Number         0  drv_w25qxx.o ABSOLUTE
    SRC\drivers\usbd_STM32F4xx_FS.c          0x00000000   Number         0  usbd_stm32f4xx_fs.o ABSOLUTE
    SRC\fc_general\Ano_FcData.c              0x00000000   Number         0  ano_fcdata.o ABSOLUTE
    SRC\fc_general\Ano_Filter.c              0x00000000   Number         0  ano_filter.o ABSOLUTE
    SRC\fc_general\Ano_Imu.c                 0x00000000   Number         0  ano_imu.o ABSOLUTE
    SRC\fc_general\Ano_Math.c                0x00000000   Number         0  ano_math.o ABSOLUTE
    SRC\fc_general\Ano_MotionCal.c           0x00000000   Number         0  ano_motioncal.o ABSOLUTE
    SRC\fc_general\Ano_Navigate.c            0x00000000   Number         0  ano_navigate.o ABSOLUTE
    SRC\fc_general\Ano_Pid.c                 0x00000000   Number         0  ano_pid.o ABSOLUTE
    SRC\fc_general\Ano_Sensor_Basic.c        0x00000000   Number         0  ano_sensor_basic.o ABSOLUTE
    SRC\fc_specific\Ano_AltCtrl.c            0x00000000   Number         0  ano_altctrl.o ABSOLUTE
    SRC\fc_specific\Ano_AttCtrl.c            0x00000000   Number         0  ano_attctrl.o ABSOLUTE
    SRC\fc_specific\Ano_FlightCtrl.c         0x00000000   Number         0  ano_flightctrl.o ABSOLUTE
    SRC\fc_specific\Ano_FlightDataCal.c      0x00000000   Number         0  ano_flightdatacal.o ABSOLUTE
    SRC\fc_specific\Ano_LocCtrl.c            0x00000000   Number         0  ano_locctrl.o ABSOLUTE
    SRC\fc_specific\Ano_MagProcess.c         0x00000000   Number         0  ano_magprocess.o ABSOLUTE
    SRC\fc_specific\Ano_MotorCtrl.c          0x00000000   Number         0  ano_motorctrl.o ABSOLUTE
    SRC\fc_specific\Ano_Power.c              0x00000000   Number         0  ano_power.o ABSOLUTE
    SRC\task\task1.c                         0x00000000   Number         0  task1.o ABSOLUTE
    cdcmple.s                                0x00000000   Number         0  cdcmple.o ABSOLUTE
    cdrcmple.s                               0x00000000   Number         0  cdrcmple.o ABSOLUTE
    dc.s                                     0x00000000   Number         0  dc.o ABSOLUTE
    handlers.s                               0x00000000   Number         0  handlers.o ABSOLUTE
    init.s                                   0x00000000   Number         0  init.o ABSOLUTE
    RESET                                    0x08000000   Section      392  startup_stm32f4xx.o(RESET)
    .ARM.Collect$$$$00000000                 0x08000188   Section        0  entry.o(.ARM.Collect$$$$00000000)
    .ARM.Collect$$$$00000001                 0x08000188   Section        4  entry2.o(.ARM.Collect$$$$00000001)
    .ARM.Collect$$$$00000004                 0x0800018c   Section        4  entry5.o(.ARM.Collect$$$$00000004)
    .ARM.Collect$$$$00000008                 0x08000190   Section        0  entry7b.o(.ARM.Collect$$$$00000008)
    .ARM.Collect$$$$0000000A                 0x08000190   Section        0  entry8b.o(.ARM.Collect$$$$0000000A)
    .ARM.Collect$$$$0000000B                 0x08000190   Section        8  entry9a.o(.ARM.Collect$$$$0000000B)
    .ARM.Collect$$$$0000000D                 0x08000198   Section        0  entry10a.o(.ARM.Collect$$$$0000000D)
    .ARM.Collect$$$$0000000F                 0x08000198   Section        0  entry11a.o(.ARM.Collect$$$$0000000F)
    .ARM.Collect$$$$00002712                 0x08000198   Section        4  entry2.o(.ARM.Collect$$$$00002712)
    __lit__00000000                          0x08000198   Data           4  entry2.o(.ARM.Collect$$$$00002712)
    .text                                    0x0800019c   Section        0  stm32f4xx_it.o(.text)
    .text                                    0x080001f0   Section        0  ano_usb.o(.text)
    .text                                    0x0800043c   Section        0  usb_config.o(.text)
    .text                                    0x08000490   Section        0  main.o(.text)
    .text                                    0x080004ac   Section        0  ano_scheduler.o(.text)
    Loop_1000Hz                              0x080004ad   Thumb Code   112  ano_scheduler.o(.text)
    Loop_500Hz                               0x0800051d   Thumb Code    24  ano_scheduler.o(.text)
    Loop_200Hz                               0x08000535   Thumb Code    26  ano_scheduler.o(.text)
    Loop_100Hz                               0x0800054f   Thumb Code    86  ano_scheduler.o(.text)
    Loop_50Hz                                0x080005a5   Thumb Code    64  ano_scheduler.o(.text)
    Loop_20Hz                                0x080005e5   Thumb Code    16  ano_scheduler.o(.text)
    Loop_2Hz                                 0x080005f5   Thumb Code    12  ano_scheduler.o(.text)
    .text                                    0x080006b8   Section        0  bsp_init.o(.text)
    .text                                    0x080007d8   Section        0  ano_dt.o(.text)
    DTFrameAddData                           0x0800088d   Thumb Code  1812  ano_dt.o(.text)
    DTFrameSend                              0x08000fa1   Thumb Code   258  ano_dt.o(.text)
    OtherSendDataAdd                         0x080010a3   Thumb Code   106  ano_dt.o(.text)
    OtherSendDataCheck                       0x0800110d   Thumb Code    90  ano_dt.o(.text)
    CheckDotMs                               0x08001167   Thumb Code   168  ano_dt.o(.text)
    SendCheck                                0x0800127b   Thumb Code   144  ano_dt.o(.text)
    SendPar                                  0x0800130b   Thumb Code   194  ano_dt.o(.text)
    WritePar                                 0x080013cd   Thumb Code    10  ano_dt.o(.text)
    AnoDTDataAnl                             0x08001493   Thumb Code   514  ano_dt.o(.text)
    .text                                    0x08001998   Section        0  ano_rc.o(.text)
    .text                                    0x08001f0c   Section        0  ano_of.o(.text)
    AnoOF_DataAnl                            0x08001fc1   Thumb Code   364  ano_of.o(.text)
    .text                                    0x08002258   Section        0  ano_flyctrl.o(.text)
    .text                                    0x08002be4   Section        0  ano_uwb.o(.text)
    .text                                    0x08002ec0   Section        0  ano_programctrl_user.o(.text)
    .text                                    0x08002f90   Section        0  ano_opmv_ctrl.o(.text)
    .text                                    0x08003084   Section        0  ano_opmv_cbtracking_ctrl.o(.text)
    ANO_CBTracking_Calcu                     0x08003085   Thumb Code   298  ano_opmv_cbtracking_ctrl.o(.text)
    ANO_CBTracking_Decoupling                0x080031af   Thumb Code   604  ano_opmv_cbtracking_ctrl.o(.text)
    .text                                    0x080034fc   Section        0  ano_opmv_linetracking_ctrl.o(.text)
    ANO_LTracking_Calcu                      0x080034fd   Thumb Code   106  ano_opmv_linetracking_ctrl.o(.text)
    ANO_LTracking_Decoupling                 0x08003567   Thumb Code   308  ano_opmv_linetracking_ctrl.o(.text)
    .text                                    0x08003a68   Section        0  ano_of_decofusion.o(.text)
    OF_INS_Get                               0x08003a69   Thumb Code   324  ano_of_decofusion.o(.text)
    ANO_OF_Data_Get                          0x08003bad   Thumb Code   192  ano_of_decofusion.o(.text)
    OF_INS_Reset                             0x08003ca7   Thumb Code    44  ano_of_decofusion.o(.text)
    ANO_OF_Fusion                            0x08003cd3   Thumb Code   534  ano_of_decofusion.o(.text)
    ANO_OF_Decouple                          0x08003ee9   Thumb Code   170  ano_of_decofusion.o(.text)
    OF_State                                 0x08003f93   Thumb Code    92  ano_of_decofusion.o(.text)
    .text                                    0x0800402c   Section        0  ano_fcdata.o(.text)
    .text                                    0x08004054   Section        0  ano_filter.o(.text)
    .text                                    0x08004898   Section        0  ano_imu.o(.text)
    .text                                    0x08005440   Section        0  ano_math.o(.text)
    .text                                    0x08005d14   Section        0  ano_motioncal.o(.text)
    .text                                    0x08005f10   Section        0  ano_pid.o(.text)
    .text                                    0x08006030   Section        0  ano_sensor_basic.o(.text)
    .text                                    0x08006244   Section        0  ano_altctrl.o(.text)
    .text                                    0x08006818   Section        0  ano_attctrl.o(.text)
    .text                                    0x0800726c   Section        0  ano_flightctrl.o(.text)
    Speed_Mode_Switch                        0x08007a03   Thumb Code     2  ano_flightctrl.o(.text)
    .text                                    0x08008118   Section        0  ano_locctrl.o(.text)
    .text                                    0x08008ef8   Section        0  ano_magprocess.o(.text)
    Mag_Cal_Reset                            0x08008ef9   Thumb Code    96  ano_magprocess.o(.text)
    Mag_Cal_XY                               0x08008f59   Thumb Code    80  ano_magprocess.o(.text)
    Mag_Cal_Z                                0x08008fa9   Thumb Code    62  ano_magprocess.o(.text)
    .text                                    0x080093a8   Section        0  ano_motorctrl.o(.text)
    .text                                    0x0800959c   Section        0  ano_power.o(.text)
    .text                                    0x080097b8   Section        0  ano_flightdatacal.o(.text)
    .text                                    0x08009b20   Section        0  drv_led.o(.text)
    ledOnOff                                 0x08009c45   Thumb Code    54  drv_led.o(.text)
    ledBreath                                0x08009c7b   Thumb Code   324  drv_led.o(.text)
    ledFlash                                 0x08009dbf   Thumb Code    62  drv_led.o(.text)
    .text                                    0x0800a174   Section        0  drv_adc.o(.text)
    initAdcDMA                               0x0800a175   Thumb Code   106  drv_adc.o(.text)
    .text                                    0x0800a298   Section        0  ano_parameter.o(.text)
    Ano_Parame_Write                         0x0800a4e5   Thumb Code    34  ano_parameter.o(.text)
    .text                                    0x0800b720   Section        0  drv_spi.o(.text)
    .text                                    0x0800b850   Section        0  drv_pwm_out.o(.text)
    .text                                    0x0800bb6c   Section        0  drv_time.o(.text)
    .text                                    0x0800bd24   Section        0  drv_usart.o(.text)
    Usart3_Send                              0x0800c2e9   Thumb Code    62  drv_usart.o(.text)
    .text                                    0x0800c65c   Section        0  drv_ak8975.o(.text)
    ak8975_enable                            0x0800c699   Thumb Code    30  drv_ak8975.o(.text)
    ak8975_Trig                              0x0800c6b7   Thumb Code    28  drv_ak8975.o(.text)
    .text                                    0x0800c760   Section        0  drv_spl06.o(.text)
    spl06_enable                             0x0800c79d   Thumb Code    30  drv_spl06.o(.text)
    spl0601_write                            0x0800c7bb   Thumb Code    32  drv_spl06.o(.text)
    spl0601_read                             0x0800c7db   Thumb Code    36  drv_spl06.o(.text)
    .text                                    0x0800ce60   Section        0  drv_w25qxx.o(.text)
    Flash_SendByte                           0x0800ce61   Thumb Code    50  drv_w25qxx.o(.text)
    Flash_ReadID                             0x0800ce93   Thumb Code    66  drv_w25qxx.o(.text)
    Flash_WriteEnable                        0x0800d047   Thumb Code    30  drv_w25qxx.o(.text)
    Flash_WaitForEnd                         0x0800d065   Thumb Code    50  drv_w25qxx.o(.text)
    .text                                    0x0800d228   Section        0  usbd_stm32f4xx_fs.o(.text)
    USBD_FlushInEpFifo                       0x0800d577   Thumb Code    60  usbd_stm32f4xx_fs.o(.text)
    .text                                    0x0800e4e0   Section        0  drv_gps.o(.text)
    UART_Write_D                             0x0800e53d   Thumb Code    42  drv_gps.o(.text)
    .text                                    0x0800ebf4   Section        0  drv_heating.o(.text)
    .text                                    0x0800ef84   Section        0  drv_openmv.o(.text)
    OpenMV_Check_Reset                       0x0800ef85   Thumb Code    12  drv_openmv.o(.text)
    OpenMV_Data_Analysis                     0x0800ef91   Thumb Code   222  drv_openmv.o(.text)
    .text                                    0x0800f234   Section        0  drv_up_flow.o(.text)
    .text                                    0x0800f458   Section        0  drv_bmi088.o(.text)
    bmi088_acc_enable                        0x0800f4c7   Thumb Code    12  drv_bmi088.o(.text)
    bmi088_gyr_enable                        0x0800f4d3   Thumb Code    12  drv_bmi088.o(.text)
    bmi088_acc_read                          0x0800f4df   Thumb Code    42  drv_bmi088.o(.text)
    bmi088_acc_write                         0x0800f509   Thumb Code    32  drv_bmi088.o(.text)
    bmi088_gyr_read                          0x0800f529   Thumb Code    36  drv_bmi088.o(.text)
    bmi088_gyr_write                         0x0800f54d   Thumb Code    32  drv_bmi088.o(.text)
    .text                                    0x0800f6fc   Section        0  drv_bsp.o(.text)
    rcSignalCheck                            0x0800f999   Thumb Code   168  drv_bsp.o(.text)
    .text                                    0x0800fb5c   Section        0  drv_rcin.o(.text)
    .text                                    0x0800fd44   Section        0  misc.o(.text)
    .text                                    0x0800ff30   Section        0  stm32f4xx_adc.o(.text)
    .text                                    0x08010fac   Section        0  stm32f4xx_dma.o(.text)
    .text                                    0x08012378   Section        0  stm32f4xx_exti.o(.text)
    .text                                    0x08012684   Section        0  stm32f4xx_gpio.o(.text)
    .text                                    0x08012f9c   Section        0  stm32f4xx_rcc.o(.text)
    .text                                    0x08013d18   Section        0  stm32f4xx_spi.o(.text)
    .text                                    0x080148e0   Section        0  stm32f4xx_tim.o(.text)
    TI4_Config                               0x080165fd   Thumb Code   128  stm32f4xx_tim.o(.text)
    TI3_Config                               0x080166df   Thumb Code    72  stm32f4xx_tim.o(.text)
    TI2_Config                               0x0801679d   Thumb Code    80  stm32f4xx_tim.o(.text)
    TI1_Config                               0x08016873   Thumb Code    58  stm32f4xx_tim.o(.text)
    .text                                    0x08017b74   Section        0  stm32f4xx_usart.o(.text)
    .text                                    0x08018a28   Section        0  system_stm32f4xx.o(.text)
    SetSysClock                              0x08018a29   Thumb Code   220  system_stm32f4xx.o(.text)
    .text                                    0x08018c38   Section       36  startup_stm32f4xx.o(.text)
    $v0                                      0x08018c38   Number         0  startup_stm32f4xx.o(.text)
    .text                                    0x08018c5c   Section        0  usbd_core.o(.text)
    .text                                    0x0801968c   Section        0  usbd_core_hid.o(.text)
    .text                                    0x0801983c   Section        0  usbd_hid.o(.text)
    .text                                    0x08019e40   Section        0  ano_imu_calibration.o(.text)
    .text                                    0x0801a1dc   Section        0  ano_imu_data.o(.text)
    .text                                    0x0801a3c0   Section        0  ano_imu_task.o(.text)
    .text                                    0x0801a464   Section        0  ultr.o(.text)
    .text                                    0x0801a620   Section        0  task1.o(.text)
    .text                                    0x0801a90c   Section        0  ldiv.o(.text)
    .text                                    0x0801a96e   Section        0  memcpya.o(.text)
    .text                                    0x0801a992   Section        0  dadd.o(.text)
    .text                                    0x0801aae0   Section        0  dmul.o(.text)
    .text                                    0x0801abc4   Section        0  ffltl.o(.text)
    .text                                    0x0801abf0   Section        0  dflti.o(.text)
    .text                                    0x0801ac12   Section        0  dfixi.o(.text)
    .text                                    0x0801ac50   Section        0  f2d.o(.text)
    .text                                    0x0801ac78   Section       48  cdcmple.o(.text)
    .text                                    0x0801aca8   Section       48  cdrcmple.o(.text)
    .text                                    0x0801acd8   Section        0  d2f.o(.text)
    .text                                    0x0801ad10   Section        0  uldiv.o(.text)
    .text                                    0x0801ad72   Section        0  llshl.o(.text)
    .text                                    0x0801ad90   Section        0  llushr.o(.text)
    .text                                    0x0801adb0   Section        0  llsshr.o(.text)
    .text                                    0x0801add4   Section        0  fepilogue.o(.text)
    .text                                    0x0801add4   Section        0  iusefp.o(.text)
    .text                                    0x0801ae42   Section        0  depilogue.o(.text)
    .text                                    0x0801aefc   Section       36  init.o(.text)
    .text                                    0x0801af20   Section        0  __dczerorl2.o(.text)
    i.__scatterload_copy                     0x0801af76   Section       14  handlers.o(i.__scatterload_copy)
    i.__scatterload_null                     0x0801af84   Section        2  handlers.o(i.__scatterload_null)
    i.__scatterload_zeroinit                 0x0801af86   Section       14  handlers.o(i.__scatterload_zeroinit)
    .constdata                               0x0801af94   Section      372  usb_config.o(.constdata)
    .constdata                               0x0801b108   Section       24  ano_dt.o(.constdata)
    .constdata                               0x0801b120   Section     1028  ano_math.o(.constdata)
    .constdata                               0x0801b524   Section      143  drv_gps.o(.constdata)
    .constdata                               0x0801b5b3   Section      322  drv_up_flow.o(.constdata)
    Sensor_cfg                               0x0801b5b3   Data         322  drv_up_flow.o(.constdata)
    .constdata                               0x0801b6f8   Section      224  task1.o(.constdata)
    .data                                    0x20000000   Section        4  ano_usb.o(.data)
    notfull_timeout                          0x20000003   Data           1  ano_usb.o(.data)
    .data                                    0x20000004   Section        9  usb_config.o(.data)
    .data                                    0x20000010   Section       84  ano_scheduler.o(.data)
    sched_tasks                              0x20000010   Data          84  ano_scheduler.o(.data)
    .data                                    0x20000064   Section        1  bsp_init.o(.data)
    .data                                    0x20000066   Section        2  ano_dt.o(.data)
    .data                                    0x20000068   Section       21  ano_rc.o(.data)
    .data                                    0x2000007d   Section        3  ano_of.o(.data)
    _data_len                                0x2000007d   Data           1  ano_of.o(.data)
    _data_cnt                                0x2000007e   Data           1  ano_of.o(.data)
    rxstate                                  0x2000007f   Data           1  ano_of.o(.data)
    .data                                    0x20000080   Section        5  ano_flyctrl.o(.data)
    val                                      0x20000080   Data           2  ano_flyctrl.o(.data)
    spd                                      0x20000082   Data           2  ano_flyctrl.o(.data)
    cmd_take_off_f                           0x20000084   Data           1  ano_flyctrl.o(.data)
    .data                                    0x20000086   Section        7  ano_uwb.o(.data)
    UWB_data_len                             0x20000086   Data           1  ano_uwb.o(.data)
    UWB_Data_OK                              0x20000087   Data           1  ano_uwb.o(.data)
    uwb_check_time                           0x20000088   Data           2  ano_uwb.o(.data)
    _data_len                                0x2000008a   Data           1  ano_uwb.o(.data)
    _sta                                     0x2000008b   Data           1  ano_uwb.o(.data)
    _rx_buf_len                              0x2000008c   Data           1  ano_uwb.o(.data)
    .data                                    0x2000008d   Section        3  ano_opmv_ctrl.o(.data)
    .data                                    0x20000090   Section       20  ano_opmv_cbtracking_ctrl.o(.data)
    target_loss_hold_time                    0x20000090   Data           2  ano_opmv_cbtracking_ctrl.o(.data)
    ref_carrier_velocity                     0x20000092   Data           4  ano_opmv_cbtracking_ctrl.o(.data)
    relative_height_cm_valid                 0x20000098   Data           4  ano_opmv_cbtracking_ctrl.o(.data)
    g_pos_err_old                            0x2000009c   Data           8  ano_opmv_cbtracking_ctrl.o(.data)
    .data                                    0x200000a4   Section       28  ano_opmv_linetracking_ctrl.o(.data)
    line_loss_hold_time                      0x200000a4   Data           2  ano_opmv_linetracking_ctrl.o(.data)
    lt_decou_pos_pixel_lpf                   0x200000a8   Data           8  ano_opmv_linetracking_ctrl.o(.data)
    step_pro_sta                             0x200000b0   Data           1  ano_opmv_linetracking_ctrl.o(.data)
    relative_height_cm_valid                 0x200000b4   Data           4  ano_opmv_linetracking_ctrl.o(.data)
    lt_gnd_pos_err_old                       0x200000b8   Data           4  ano_opmv_linetracking_ctrl.o(.data)
    confirm_cnt                              0x200000bc   Data           1  ano_opmv_linetracking_ctrl.o(.data)
    elapsed_time_ms                          0x200000be   Data           2  ano_opmv_linetracking_ctrl.o(.data)
    .data                                    0x200000c0   Section       48  ano_of_decofusion.o(.data)
    rad_ps_lpf                               0x200000dc   Data           8  ano_of_decofusion.o(.data)
    offline_delay_time_s                     0x200000e4   Data           4  ano_of_decofusion.o(.data)
    F_KP                                     0x200000e8   Data           4  ano_of_decofusion.o(.data)
    F_KI                                     0x200000ec   Data           4  ano_of_decofusion.o(.data)
    .data                                    0x200000f0   Section       12  ano_filter.o(.data)
    pn                                       0x200000f0   Data           1  ano_filter.o(.data)
    h_tmp_x                                  0x200000f4   Data           4  ano_filter.o(.data)
    h_tmp_y                                  0x200000f8   Data           4  ano_filter.o(.data)
    .data                                    0x200000fc   Section      344  ano_imu.o(.data)
    q0q1                                     0x200001e4   Data           4  ano_imu.o(.data)
    q0q2                                     0x200001e8   Data           4  ano_imu.o(.data)
    q1q1                                     0x200001ec   Data           4  ano_imu.o(.data)
    q1q3                                     0x200001f0   Data           4  ano_imu.o(.data)
    q2q2                                     0x200001f4   Data           4  ano_imu.o(.data)
    q2q3                                     0x200001f8   Data           4  ano_imu.o(.data)
    q3q3                                     0x200001fc   Data           4  ano_imu.o(.data)
    q1q2                                     0x20000200   Data           4  ano_imu.o(.data)
    q0q3                                     0x20000204   Data           4  ano_imu.o(.data)
    mag_yaw_err                              0x20000208   Data           4  ano_imu.o(.data)
    mag_err_dot_prudoct                      0x2000020c   Data           4  ano_imu.o(.data)
    imu_reset_val                            0x20000210   Data           4  ano_imu.o(.data)
    reset_cnt                                0x20000214   Data           2  ano_imu.o(.data)
    mag_2d_w_vec                             0x20000230   Data          16  ano_imu.o(.data)
    t_temp                                   0x20000240   Data           4  ano_imu.o(.data)
    kp_use                                   0x20000248   Data           4  ano_imu.o(.data)
    ki_use                                   0x2000024c   Data           4  ano_imu.o(.data)
    mkp_use                                  0x20000250   Data           4  ano_imu.o(.data)
    .data                                    0x20000254   Section       25  ano_motioncal.o(.data)
    wcz_acc                                  0x20000268   Data           4  ano_motioncal.o(.data)
    cyc_xn                                   0x2000026c   Data           1  ano_motioncal.o(.data)
    .data                                    0x20000270   Section       14  ano_altctrl.o(.data)
    auto_taking_off_speed                    0x20000270   Data           2  ano_altctrl.o(.data)
    err_i_comp                               0x20000274   Data           4  ano_altctrl.o(.data)
    w_acc_z_lpf                              0x20000278   Data           4  ano_altctrl.o(.data)
    take_off_ok_cnt                          0x2000027c   Data           2  ano_altctrl.o(.data)
    .data                                    0x20000280   Section       16  ano_attctrl.o(.data)
    max_yaw_speed                            0x20000280   Data           4  ano_attctrl.o(.data)
    set_yaw_av_tmp                           0x20000284   Data           4  ano_attctrl.o(.data)
    exp_rol_tmp                              0x20000288   Data           4  ano_attctrl.o(.data)
    exp_pit_tmp                              0x2000028c   Data           4  ano_attctrl.o(.data)
    .data                                    0x20000290   Section       89  ano_flightctrl.o(.data)
    ld_delay_cnt                             0x200002a4   Data           2  ano_flightctrl.o(.data)
    of_quality_ok                            0x200002b0   Data           1  ano_flightctrl.o(.data)
    of_quality_delay                         0x200002b2   Data           2  ano_flightctrl.o(.data)
    of_alt_ok                                0x200002b4   Data           1  ano_flightctrl.o(.data)
    of_alt_delay                             0x200002b6   Data           2  ano_flightctrl.o(.data)
    of_tof_on_tmp                            0x200002b8   Data           1  ano_flightctrl.o(.data)
    max_speed_lim                            0x200002dc   Data           4  ano_flightctrl.o(.data)
    vel_z_tmp                                0x200002e0   Data           8  ano_flightctrl.o(.data)
    sta                                      0x200002e8   Data           1  ano_flightctrl.o(.data)
    .data                                    0x200002ec   Section       54  ano_locctrl.o(.data)
    mode_f                                   0x200002ee   Data           2  ano_locctrl.o(.data)
    fb_speed_fix                             0x200002f0   Data           8  ano_locctrl.o(.data)
    loc_hand_exp_vel                         0x20000318   Data           8  ano_locctrl.o(.data)
    waite_gps_loc_cnt                        0x20000320   Data           2  ano_locctrl.o(.data)
    .data                                    0x20000324   Section       32  ano_magprocess.o(.data)
    max_t                                    0x20000324   Data           6  ano_magprocess.o(.data)
    min_t                                    0x2000032a   Data           6  ano_magprocess.o(.data)
    mag_cal_step                             0x20000338   Data           1  ano_magprocess.o(.data)
    cali_cnt                                 0x2000033a   Data           2  ano_magprocess.o(.data)
    mag_cal_angle                            0x2000033c   Data           8  ano_magprocess.o(.data)
    .data                                    0x20000344   Section       20  ano_motorctrl.o(.data)
    motor_prepara_cnt                        0x20000354   Data           2  ano_motorctrl.o(.data)
    .data                                    0x20000358   Section       12  ano_power.o(.data)
    voltage_f                                0x2000035c   Data           4  ano_power.o(.data)
    voltage_init_ok                          0x20000360   Data           1  ano_power.o(.data)
    voltage_s16                              0x20000362   Data           2  ano_power.o(.data)
    .data                                    0x20000364   Section       65  ano_flightdatacal.o(.data)
    reset_imu_f                              0x20000366   Data           1  ano_flightdatacal.o(.data)
    mag_val                                  0x20000368   Data           6  ano_flightdatacal.o(.data)
    wcz_f_pause                              0x20000398   Data           1  ano_flightdatacal.o(.data)
    baro_offset_ok                           0x200003a2   Data           1  ano_flightdatacal.o(.data)
    tof_offset_ok                            0x200003a3   Data           1  ano_flightdatacal.o(.data)
    cnt                                      0x200003a4   Data           1  ano_flightdatacal.o(.data)
    .data                                    0x200003a8   Section       39  drv_led.o(.data)
    led_cnt                                  0x200003bc   Data           8  drv_led.o(.data)
    dir                                      0x200003c4   Data           4  drv_led.o(.data)
    tim_tmp                                  0x200003c8   Data           2  drv_led.o(.data)
    timtmp                                   0x200003ca   Data           2  drv_led.o(.data)
    cnttmp                                   0x200003cc   Data           1  drv_led.o(.data)
    statmp                                   0x200003cd   Data           1  drv_led.o(.data)
    modtmp                                   0x200003ce   Data           1  drv_led.o(.data)
    .data                                    0x200003d0   Section        2  drv_adc.o(.data)
    .data                                    0x200003d2   Section        4  ano_parameter.o(.data)
    .data                                    0x200003d8   Section        8  drv_time.o(.data)
    .data                                    0x200003e0   Section       57  drv_usart.o(.data)
    .data                                    0x20000419   Section        6  drv_ak8975.o(.data)
    ak8975_buf                               0x20000419   Data           6  drv_ak8975.o(.data)
    .data                                    0x20000420   Section       11  drv_spl06.o(.data)
    p_spl0601                                0x20000420   Data           4  drv_spl06.o(.data)
    dly_cnt                                  0x20000429   Data           1  drv_spl06.o(.data)
    vel_cnt                                  0x2000042a   Data           1  drv_spl06.o(.data)
    .data                                    0x2000042c   Section       48  usbd_stm32f4xx_fs.o(.data)
    IsoInIncomplete                          0x20000458   Data           4  usbd_stm32f4xx_fs.o(.data)
    .data                                    0x2000045c   Section       25  drv_gps.o(.data)
    home_locked                              0x20000469   Data           1  drv_gps.o(.data)
    err_N_step                               0x2000046c   Data           4  drv_gps.o(.data)
    err_E_step                               0x20000470   Data           4  drv_gps.o(.data)
    last_gps_heart                           0x20000474   Data           1  drv_gps.o(.data)
    .data                                    0x20000478   Section       19  drv_heating.o(.data)
    temperature_cnt                          0x20000488   Data           2  drv_heating.o(.data)
    thermostatic_en                          0x2000048a   Data           1  drv_heating.o(.data)
    .data                                    0x2000048c   Section        6  drv_laser.o(.data)
    sta                                      0x20000490   Data           1  drv_laser.o(.data)
    cnt                                      0x20000491   Data           1  drv_laser.o(.data)
    .data                                    0x20000492   Section        4  drv_openmv.o(.data)
    len                                      0x20000494   Data           1  drv_openmv.o(.data)
    rec_sta                                  0x20000495   Data           1  drv_openmv.o(.data)
    .data                                    0x20000496   Section        4  drv_up_flow.o(.data)
    in_p                                     0x20000498   Data           1  drv_up_flow.o(.data)
    head_p                                   0x20000499   Data           1  drv_up_flow.o(.data)
    .data                                    0x2000049a   Section        2  drv_bmi088.o(.data)
    read_temperature_f                       0x2000049a   Data           1  drv_bmi088.o(.data)
    read_acceleration_f                      0x2000049b   Data           1  drv_bmi088.o(.data)
    .data                                    0x2000049c   Section       14  drv_bsp.o(.data)
    sbus_time                                0x2000049c   Data           8  drv_bsp.o(.data)
    cnt                                      0x200004a4   Data           1  drv_bsp.o(.data)
    frame_cnt                                0x200004a5   Data           1  drv_bsp.o(.data)
    ch_sta                                   0x200004a6   Data           1  drv_bsp.o(.data)
    cnt_tmp                                  0x200004a7   Data           1  drv_bsp.o(.data)
    time_dly                                 0x200004a8   Data           2  drv_bsp.o(.data)
    .data                                    0x200004aa   Section        4  drv_rcin.o(.data)
    temp_cnt                                 0x200004aa   Data           4  drv_rcin.o(.data)
    .data                                    0x200004ae   Section       16  stm32f4xx_rcc.o(.data)
    APBAHBPrescTable                         0x200004ae   Data          16  stm32f4xx_rcc.o(.data)
    .data                                    0x200004c0   Section       20  system_stm32f4xx.o(.data)
    .data                                    0x200004d4   Section       36  usbd_core.o(.data)
    .data                                    0x200004f8   Section       39  usbd_hid.o(.data)
    cnt_for_4ms                              0x2000051e   Data           1  usbd_hid.o(.data)
    .data                                    0x20000520   Section       24  ano_imu_calibration.o(.data)
    acc_sum_cnt                              0x20000524   Data           2  ano_imu_calibration.o(.data)
    gyr_sum_cnt                              0x20000526   Data           2  ano_imu_calibration.o(.data)
    acc_delta_length                         0x20000528   Data           4  ano_imu_calibration.o(.data)
    gyr_delta_length                         0x2000052c   Data           4  ano_imu_calibration.o(.data)
    hold_time_ms                             0x20000530   Data           8  ano_imu_calibration.o(.data)
    .data                                    0x20000538   Section        8  ultr.o(.data)
    .data                                    0x20000540   Section       61  task1.o(.data)
    sta2                                     0x2000057a   Data           1  task1.o(.data)
    sta                                      0x2000057b   Data           1  task1.o(.data)
    sta1                                     0x2000057c   Data           1  task1.o(.data)
    .bss                                     0x20000580   Section      320  ano_usb.o(.bss)
    .bss                                     0x200006c0   Section      800  usb_config.o(.bss)
    .bss                                     0x200009e0   Section       36  ano_scheduler.o(.bss)
    .bss                                     0x20000a04   Section     1096  ano_dt.o(.bss)
    rx_anl                                   0x20000d83   Data         201  ano_dt.o(.bss)
    .bss                                     0x20000e4c   Section       16  ano_rc.o(.bss)
    .bss                                     0x20000e5c   Section      124  ano_of.o(.bss)
    _datatemp                                0x20000e98   Data          50  ano_of.o(.bss)
    check_time_ms                            0x20000ecc   Data          12  ano_of.o(.bss)
    .bss                                     0x20000ed8   Section       84  ano_flyctrl.o(.bss)
    .bss                                     0x20000f2c   Section      572  ano_uwb.o(.bss)
    UWB_RxBuffer                             0x20000f68   Data         256  ano_uwb.o(.bss)
    _rx_buf                                  0x20001068   Data         256  ano_uwb.o(.bss)
    .bss                                     0x20001168   Section       32  ano_programctrl_user.o(.bss)
    .bss                                     0x20001188   Section       68  ano_opmv_cbtracking_ctrl.o(.bss)
    decou_pos_pixel_lpf                      0x200011bc   Data          16  ano_opmv_cbtracking_ctrl.o(.bss)
    .bss                                     0x200011cc   Section       32  ano_opmv_linetracking_ctrl.o(.bss)
    .bss                                     0x200011ec   Section       84  ano_of_decofusion.o(.bss)
    .bss                                     0x20001240   Section       65  ano_fcdata.o(.bss)
    .bss                                     0x20001284   Section       84  ano_imu.o(.bss)
    vec_err                                  0x200012a8   Data          12  ano_imu.o(.bss)
    vec_err_i                                0x200012b4   Data          12  ano_imu.o(.bss)
    mag_val_f                                0x200012c0   Data          12  ano_imu.o(.bss)
    .bss                                     0x200012d8   Section       76  ano_motioncal.o(.bss)
    .bss                                     0x20001324   Section      264  ano_sensor_basic.o(.bss)
    gyr_f                                    0x200013b4   Data          60  ano_sensor_basic.o(.bss)
    acc_f                                    0x200013f0   Data          60  ano_sensor_basic.o(.bss)
    .bss                                     0x2000142c   Section      128  ano_altctrl.o(.bss)
    .bss                                     0x200014ac   Section      488  ano_attctrl.o(.bss)
    ct_val                                   0x2000166c   Data          16  ano_attctrl.o(.bss)
    .bss                                     0x20001694   Section       52  ano_flightctrl.o(.bss)
    .bss                                     0x200016c8   Section      352  ano_locctrl.o(.bss)
    .bss                                     0x20001828   Section       16  ano_motorctrl.o(.bss)
    .bss                                     0x20001838   Section       15  drv_led.o(.bss)
    .bss                                     0x20001848   Section     4096  ano_parameter.o(.bss)
    .bss                                     0x20002848   Section     1794  drv_usart.o(.bss)
    .bss                                     0x20002f4c   Section       64  drv_spl06.o(.bss)
    spl0601                                  0x20002f4c   Data          44  drv_spl06.o(.bss)
    .bss                                     0x20002f8c   Section       12  drv_w25qxx.o(.bss)
    flash_info                               0x20002f8c   Data          12  drv_w25qxx.o(.bss)
    .bss                                     0x20002f98   Section      112  usbd_stm32f4xx_fs.o(.bss)
    .bss                                     0x20003008   Section      223  drv_gps.o(.bss)
    .bss                                     0x200030e8   Section       12  drv_heating.o(.bss)
    .bss                                     0x200030f4   Section      164  drv_openmv.o(.bss)
    .bss                                     0x20003198   Section       28  drv_up_flow.o(.bss)
    com_getdata                              0x200031a6   Data          14  drv_up_flow.o(.bss)
    .bss                                     0x200031b4   Section       14  drv_bmi088.o(.bss)
    .bss                                     0x200031c2   Section      107  drv_bsp.o(.bss)
    datatmp                                  0x20003214   Data          25  drv_bsp.o(.bss)
    .bss                                     0x20003230   Section       72  ano_imu_calibration.o(.bss)
    acc_sum_av                               0x20003230   Data          12  ano_imu_calibration.o(.bss)
    gyr_sum_av                               0x2000323c   Data          12  ano_imu_calibration.o(.bss)
    acc_tmp                                  0x20003248   Data          12  ano_imu_calibration.o(.bss)
    gyr_tmp                                  0x20003254   Data          12  ano_imu_calibration.o(.bss)
    acc_delta_tmp                            0x20003260   Data          12  ano_imu_calibration.o(.bss)
    gyr_delta_tmp                            0x2000326c   Data          12  ano_imu_calibration.o(.bss)
    .bss                                     0x20003278   Section      168  ano_imu_data.o(.bss)
    .bss                                     0x20003320   Section       10  ultr.o(.bss)
    .bss                                     0x2000332c   Section      288  task1.o(.bss)
    STACK                                    0x20003450   Section     2048  startup_stm32f4xx.o(STACK)

    Global Symbols

    Symbol Name                              Value     Ov Type        Size  Object(Section)

    BuildAttributes$$THM_ISAv4$E$P$D$K$B$S$7EM$VFPi3$EXTD16$VFPS$VFMA$PE$A:L22UL41UL21$X:L11$S22US41US21$IEEE1$IW$USESV6$~STKCKD$USESV7$~SHL$OTIME$ROPI$IEEEJ$EBA8$MICROLIB$REQ8$PRES8$EABIv2 0x00000000   Number         0  anon$$obj.o ABSOLUTE
    __ARM_use_no_argv                        0x00000000   Number         0  main.o ABSOLUTE
    _printf_a                                0x00000000   Number         0  stubs.o ABSOLUTE
    _printf_c                                0x00000000   Number         0  stubs.o ABSOLUTE
    _printf_charcount                        0x00000000   Number         0  stubs.o ABSOLUTE
    _printf_d                                0x00000000   Number         0  stubs.o ABSOLUTE
    _printf_e                                0x00000000   Number         0  stubs.o ABSOLUTE
    _printf_f                                0x00000000   Number         0  stubs.o ABSOLUTE
    _printf_flags                            0x00000000   Number         0  stubs.o ABSOLUTE
    _printf_fp_dec                           0x00000000   Number         0  stubs.o ABSOLUTE
    _printf_fp_hex                           0x00000000   Number         0  stubs.o ABSOLUTE
    _printf_g                                0x00000000   Number         0  stubs.o ABSOLUTE
    _printf_i                                0x00000000   Number         0  stubs.o ABSOLUTE
    _printf_int_dec                          0x00000000   Number         0  stubs.o ABSOLUTE
    _printf_l                                0x00000000   Number         0  stubs.o ABSOLUTE
    _printf_lc                               0x00000000   Number         0  stubs.o ABSOLUTE
    _printf_ll                               0x00000000   Number         0  stubs.o ABSOLUTE
    _printf_lld                              0x00000000   Number         0  stubs.o ABSOLUTE
    _printf_lli                              0x00000000   Number         0  stubs.o ABSOLUTE
    _printf_llo                              0x00000000   Number         0  stubs.o ABSOLUTE
    _printf_llu                              0x00000000   Number         0  stubs.o ABSOLUTE
    _printf_llx                              0x00000000   Number         0  stubs.o ABSOLUTE
    _printf_longlong_dec                     0x00000000   Number         0  stubs.o ABSOLUTE
    _printf_longlong_hex                     0x00000000   Number         0  stubs.o ABSOLUTE
    _printf_longlong_oct                     0x00000000   Number         0  stubs.o ABSOLUTE
    _printf_ls                               0x00000000   Number         0  stubs.o ABSOLUTE
    _printf_mbtowc                           0x00000000   Number         0  stubs.o ABSOLUTE
    _printf_n                                0x00000000   Number         0  stubs.o ABSOLUTE
    _printf_o                                0x00000000   Number         0  stubs.o ABSOLUTE
    _printf_p                                0x00000000   Number         0  stubs.o ABSOLUTE
    _printf_percent                          0x00000000   Number         0  stubs.o ABSOLUTE
    _printf_pre_padding                      0x00000000   Number         0  stubs.o ABSOLUTE
    _printf_return_value                     0x00000000   Number         0  stubs.o ABSOLUTE
    _printf_s                                0x00000000   Number         0  stubs.o ABSOLUTE
    _printf_sizespec                         0x00000000   Number         0  stubs.o ABSOLUTE
    _printf_str                              0x00000000   Number         0  stubs.o ABSOLUTE
    _printf_truncate_signed                  0x00000000   Number         0  stubs.o ABSOLUTE
    _printf_truncate_unsigned                0x00000000   Number         0  stubs.o ABSOLUTE
    _printf_u                                0x00000000   Number         0  stubs.o ABSOLUTE
    _printf_wc                               0x00000000   Number         0  stubs.o ABSOLUTE
    _printf_wctomb                           0x00000000   Number         0  stubs.o ABSOLUTE
    _printf_widthprec                        0x00000000   Number         0  stubs.o ABSOLUTE
    _printf_x                                0x00000000   Number         0  stubs.o ABSOLUTE
    USBD_EndPoint10                           - Undefined Weak Reference
    USBD_EndPoint11                           - Undefined Weak Reference
    USBD_EndPoint12                           - Undefined Weak Reference
    USBD_EndPoint13                           - Undefined Weak Reference
    USBD_EndPoint14                           - Undefined Weak Reference
    USBD_EndPoint15                           - Undefined Weak Reference
    USBD_EndPoint2                            - Undefined Weak Reference
    USBD_EndPoint3                            - Undefined Weak Reference
    USBD_EndPoint4                            - Undefined Weak Reference
    USBD_EndPoint5                            - Undefined Weak Reference
    USBD_EndPoint6                            - Undefined Weak Reference
    USBD_EndPoint7                            - Undefined Weak Reference
    USBD_EndPoint8                            - Undefined Weak Reference
    USBD_EndPoint9                            - Undefined Weak Reference
    USBD_Error_Event                          - Undefined Weak Reference
    USBD_Feature_Event                        - Undefined Weak Reference
    USBD_Interface_Event                      - Undefined Weak Reference
    USBD_Power_Event                          - Undefined Weak Reference
    USBD_Reset_Event                          - Undefined Weak Reference
    USBD_Resume_Event                         - Undefined Weak Reference
    USBD_Suspend_Event                        - Undefined Weak Reference
    USBD_WakeUp_Event                         - Undefined Weak Reference
    __cpp_initialize__aeabi_                  - Undefined Weak Reference
    __cxa_finalize                            - Undefined Weak Reference
    _clock_init                               - Undefined Weak Reference
    _microlib_exit                            - Undefined Weak Reference
    _scanf_int                                - Undefined Weak Reference
    _scanf_longlong                           - Undefined Weak Reference
    _scanf_string                             - Undefined Weak Reference
    __Vectors_Size                           0x00000188   Number         0  startup_stm32f4xx.o ABSOLUTE
    __RL_USBD_VER                            0x00000470   Number         0  usbd_core.o ABSOLUTE
    __Vectors                                0x08000000   Data           4  startup_stm32f4xx.o(RESET)
    __Vectors_End                            0x08000188   Data           0  startup_stm32f4xx.o(RESET)
    __main                                   0x08000189   Thumb Code     0  entry.o(.ARM.Collect$$$$00000000)
    _main_stk                                0x08000189   Thumb Code     0  entry2.o(.ARM.Collect$$$$00000001)
    _main_scatterload                        0x0800018d   Thumb Code     0  entry5.o(.ARM.Collect$$$$00000004)
    __main_after_scatterload                 0x08000191   Thumb Code     0  entry5.o(.ARM.Collect$$$$00000004)
    _main_clock                              0x08000191   Thumb Code     0  entry7b.o(.ARM.Collect$$$$00000008)
    _main_cpp_init                           0x08000191   Thumb Code     0  entry8b.o(.ARM.Collect$$$$0000000A)
    _main_init                               0x08000191   Thumb Code     0  entry9a.o(.ARM.Collect$$$$0000000B)
    __rt_final_cpp                           0x08000199   Thumb Code     0  entry10a.o(.ARM.Collect$$$$0000000D)
    __rt_final_exit                          0x08000199   Thumb Code     0  entry11a.o(.ARM.Collect$$$$0000000F)
    NMI_Handler                              0x0800019d   Thumb Code     2  stm32f4xx_it.o(.text)
    MemManage_Handler                        0x0800019f   Thumb Code     4  stm32f4xx_it.o(.text)
    BusFault_Handler                         0x080001a3   Thumb Code     4  stm32f4xx_it.o(.text)
    UsageFault_Handler                       0x080001a7   Thumb Code     4  stm32f4xx_it.o(.text)
    SVC_Handler                              0x080001ab   Thumb Code     2  stm32f4xx_it.o(.text)
    DebugMon_Handler                         0x080001ad   Thumb Code     2  stm32f4xx_it.o(.text)
    EXTI9_5_IRQHandler                       0x080001af   Thumb Code    18  stm32f4xx_it.o(.text)
    TIM3_IRQHandler                          0x080001c1   Thumb Code     8  stm32f4xx_it.o(.text)
    USART2_IRQHandler                        0x080001c9   Thumb Code     8  stm32f4xx_it.o(.text)
    USART3_IRQHandler                        0x080001d1   Thumb Code     8  stm32f4xx_it.o(.text)
    UART4_IRQHandler                         0x080001d9   Thumb Code     8  stm32f4xx_it.o(.text)
    UART5_IRQHandler                         0x080001e1   Thumb Code     8  stm32f4xx_it.o(.text)
    USART6_IRQHandler                        0x080001e9   Thumb Code     8  stm32f4xx_it.o(.text)
    Usb_Hid_Init                             0x080001f1   Thumb Code    14  ano_usb.o(.text)
    Usb_Hid_Adddata                          0x080001ff   Thumb Code    36  ano_usb.o(.text)
    Usb_Hid_Send                             0x08000223   Thumb Code   406  ano_usb.o(.text)
    usbd_hid_get_report                      0x080003b9   Thumb Code    54  ano_usb.o(.text)
    usbd_hid_set_report                      0x080003ef   Thumb Code    54  ano_usb.o(.text)
    USBD_Configure_Event                     0x0800043d   Thumb Code     4  usb_config.o(.text)
    USBD_ReqClrFeature_MSC                   0x08000441   Thumb Code     2  usb_config.o(.text)
    USBD_EndPoint0_Setup_MSC_ReqToIF         0x08000443   Thumb Code     4  usb_config.o(.text)
    USBD_EndPoint0_Out_MSC_ReqToIF           0x08000447   Thumb Code     4  usb_config.o(.text)
    USBD_EndPoint0_Setup_ADC_ReqToIF         0x0800044b   Thumb Code     4  usb_config.o(.text)
    USBD_EndPoint0_Setup_ADC_ReqToEP         0x0800044f   Thumb Code     4  usb_config.o(.text)
    USBD_EndPoint0_Out_ADC_ReqToIF           0x08000453   Thumb Code     4  usb_config.o(.text)
    USBD_EndPoint0_Out_ADC_ReqToEP           0x08000457   Thumb Code     4  usb_config.o(.text)
    USBD_EndPoint0_Setup_CDC_ReqToIF         0x0800045b   Thumb Code     4  usb_config.o(.text)
    USBD_EndPoint0_Out_CDC_ReqToIF           0x0800045f   Thumb Code     4  usb_config.o(.text)
    USBD_EndPoint0_Setup_CLS_ReqToDEV        0x08000463   Thumb Code     4  usb_config.o(.text)
    USBD_EndPoint0_Setup_CLS_ReqToIF         0x08000467   Thumb Code     4  usb_config.o(.text)
    USBD_EndPoint0_Setup_CLS_ReqToEP         0x0800046b   Thumb Code     4  usb_config.o(.text)
    USBD_EndPoint0_Out_CLS_ReqToDEV          0x0800046f   Thumb Code     4  usb_config.o(.text)
    USBD_EndPoint0_Out_CLS_ReqToIF           0x08000473   Thumb Code     4  usb_config.o(.text)
    USBD_EndPoint0_Out_CLS_ReqToEP           0x08000477   Thumb Code     4  usb_config.o(.text)
    USBD_SOF_Event                           0x0800047b   Thumb Code     4  usb_config.o(.text)
    usbd_os_evt_set                          0x0800047f   Thumb Code     2  usb_config.o(.text)
    usbd_os_evt_get                          0x08000481   Thumb Code     4  usb_config.o(.text)
    usbd_os_evt_wait_or                      0x08000485   Thumb Code     4  usb_config.o(.text)
    usbd_class_init                          0x08000489   Thumb Code     4  usb_config.o(.text)
    USBD_RTX_TaskInit                        0x0800048d   Thumb Code     2  usb_config.o(.text)
    assert_failed                            0x08000491   Thumb Code     4  main.o(.text)
    main                                     0x08000495   Thumb Code    20  main.o(.text)
    Scheduler_Setup                          0x08000601   Thumb Code    76  ano_scheduler.o(.text)
    Scheduler_Run                            0x0800064d   Thumb Code    76  ano_scheduler.o(.text)
    All_Init                                 0x080006b9   Thumb Code   196  bsp_init.o(.text)
    DrvGpioCsPinCtrlBmi088Acc                0x0800077d   Thumb Code    26  bsp_init.o(.text)
    DrvGpioCsPinCtrlBmi088Gyr                0x08000797   Thumb Code    30  bsp_init.o(.text)
    ANO_DT_Init                              0x080007d9   Thumb Code   142  ano_dt.o(.text)
    ANO_DT_Send_Data                         0x08000867   Thumb Code    38  ano_dt.o(.text)
    CheckDotWts                              0x0800120f   Thumb Code   108  ano_dt.o(.text)
    AnoDTSendStr                             0x080013d7   Thumb Code   188  ano_dt.o(.text)
    AnoDTRxOneByte                           0x08001695   Thumb Code   660  ano_dt.o(.text)
    AnoDTRxOneByteUart                       0x08001929   Thumb Code    14  ano_dt.o(.text)
    AnoDTRxOneByteUsb                        0x08001937   Thumb Code    14  ano_dt.o(.text)
    ANO_DT_Task1Ms                           0x08001945   Thumb Code    80  ano_dt.o(.text)
    stick_function_check_longpress           0x08001999   Thumb Code    38  ano_rc.o(.text)
    unlock                                   0x080019bf   Thumb Code   570  ano_rc.o(.text)
    fail_safe                                0x08001bf9   Thumb Code    80  ano_rc.o(.text)
    stick_function_check                     0x08001c49   Thumb Code    66  ano_rc.o(.text)
    stick_function                           0x08001c8b   Thumb Code   482  ano_rc.o(.text)
    RC_duty_task                             0x08001e6d   Thumb Code   130  ano_rc.o(.text)
    AnoOF_Check_State                        0x08001f0d   Thumb Code   180  ano_of.o(.text)
    AnoOF_GetOneByte                         0x0800212d   Thumb Code   262  ano_of.o(.text)
    FlyCtrlDataAnl                           0x08002259   Thumb Code    32  ano_flyctrl.o(.text)
    FlyCtrlReset                             0x08002279   Thumb Code    98  ano_flyctrl.o(.text)
    FlyCtrl_Task                             0x080022db   Thumb Code  2304  ano_flyctrl.o(.text)
    Ano_UWB_Get_Byte                         0x08002be5   Thumb Code   250  ano_uwb.o(.text)
    Ano_UWB_Get_Data_Task                    0x08002cdf   Thumb Code   352  ano_uwb.o(.text)
    Ano_UWB_Data_Calcu_Task                  0x08002e3f   Thumb Code    82  ano_uwb.o(.text)
    Program_Ctrl_User_Set_HXYcmps            0x08002ec1   Thumb Code    42  ano_programctrl_user.o(.text)
    Program_Ctrl_User_Set_Zcmps              0x08002eeb   Thumb Code    70  ano_programctrl_user.o(.text)
    Program_Ctrl_User_Set_YAWdps             0x08002f31   Thumb Code    70  ano_programctrl_user.o(.text)
    ANO_OPMV_Ctrl_Task                       0x08002f91   Thumb Code   212  ano_opmv_ctrl.o(.text)
    ANO_CBTracking_Task                      0x0800340b   Thumb Code    54  ano_opmv_cbtracking_ctrl.o(.text)
    ANO_CBTracking_Ctrl                      0x08003441   Thumb Code   182  ano_opmv_cbtracking_ctrl.o(.text)
    ANO_LTracking_Task                       0x0800369b   Thumb Code    54  ano_opmv_linetracking_ctrl.o(.text)
    ANO_LT_StepProcedure                     0x080036d1   Thumb Code   694  ano_opmv_linetracking_ctrl.o(.text)
    ANO_LTracking_Ctrl                       0x08003987   Thumb Code   192  ano_opmv_linetracking_ctrl.o(.text)
    ANO_OF_Data_Prepare_Task                 0x08003c6d   Thumb Code    58  ano_of_decofusion.o(.text)
    ANO_OFDF_Task                            0x08003fef   Thumb Code    24  ano_of_decofusion.o(.text)
    data_save                                0x0800402d   Thumb Code    22  ano_fcdata.o(.text)
    Para_Data_Init                           0x08004043   Thumb Code     8  ano_fcdata.o(.text)
    inte_fix_filter                          0x08004055   Thumb Code   138  ano_filter.o(.text)
    fix_inte_filter                          0x080040df   Thumb Code   128  ano_filter.o(.text)
    limit_filter                             0x0800415f   Thumb Code   138  ano_filter.o(.text)
    limit_filter_2                           0x080041e9   Thumb Code   138  ano_filter.o(.text)
    limit_filter_3                           0x08004273   Thumb Code   142  ano_filter.o(.text)
    steepest_descend                         0x08004301   Thumb Code   440  ano_filter.o(.text)
    fir_arrange_filter                       0x080044b9   Thumb Code   164  ano_filter.o(.text)
    Moving_Average                           0x0800455d   Thumb Code   150  ano_filter.o(.text)
    LPF_1                                    0x080045f3   Thumb Code    58  ano_filter.o(.text)
    LPF_1_db                                 0x0800462d   Thumb Code   144  ano_filter.o(.text)
    step_filter                              0x080046bd   Thumb Code    74  ano_filter.o(.text)
    my_hpf_limited                           0x08004707   Thumb Code   122  ano_filter.o(.text)
    simple_3d_trans                          0x08004781   Thumb Code   240  ano_filter.o(.text)
    vec_3dh_transition                       0x08004871   Thumb Code    20  ano_filter.o(.text)
    vec_3dh_transition_matrix                0x08004885   Thumb Code     2  ano_filter.o(.text)
    w2h_2d_trans                             0x08004899   Thumb Code    62  ano_imu.o(.text)
    h2w_2d_trans                             0x080048d7   Thumb Code    62  ano_imu.o(.text)
    a2w_3d_trans                             0x08004915   Thumb Code    86  ano_imu.o(.text)
    IMU_update                               0x0800496b   Thumb Code  2428  ano_imu.o(.text)
    calculate_RPY                            0x080052e7   Thumb Code   282  ano_imu.o(.text)
    my_abs                                   0x08005441   Thumb Code    26  ano_math.o(.text)
    fast_atan2                               0x0800545b   Thumb Code   350  ano_math.o(.text)
    my_atan                                  0x080055b9   Thumb Code    24  ano_math.o(.text)
    my_sqrt_reciprocal                       0x080055d1   Thumb Code    76  ano_math.o(.text)
    my_sqrt                                  0x0800561d   Thumb Code    20  ano_math.o(.text)
    mx_sin                                   0x08005631   Thumb Code   292  ano_math.o(.text)
    my_sin                                   0x08005755   Thumb Code   108  ano_math.o(.text)
    my_cos                                   0x080057c1   Thumb Code   136  ano_math.o(.text)
    my_deadzone                              0x08005849   Thumb Code   152  ano_math.o(.text)
    my_deadzone_2                            0x080058e1   Thumb Code    48  ano_math.o(.text)
    my_HPF                                   0x08005911   Thumb Code   346  ano_math.o(.text)
    To_180_degrees_db                        0x08005a6b   Thumb Code   108  ano_math.o(.text)
    length_limit                             0x08005ad7   Thumb Code   140  ano_math.o(.text)
    fifo                                     0x08005b63   Thumb Code    42  ano_math.o(.text)
    rot_vec_2                                0x08005b8d   Thumb Code    84  ano_math.o(.text)
    vec_2_cross_product                      0x08005be1   Thumb Code    26  ano_math.o(.text)
    vec_2_dot_product                        0x08005bfb   Thumb Code    26  ano_math.o(.text)
    vec_3_cross_product_err_sinx             0x08005c15   Thumb Code    86  ano_math.o(.text)
    vec_3_dot_product                        0x08005c6b   Thumb Code    38  ano_math.o(.text)
    Vec3f_Mul_MatrixT                        0x08005c91   Thumb Code    84  ano_math.o(.text)
    WCZ_Data_Calc                            0x08005d15   Thumb Code   376  ano_motioncal.o(.text)
    WCZ_Data_Reset                           0x08005e8d   Thumb Code    68  ano_motioncal.o(.text)
    PID_calculate                            0x08005f11   Thumb Code   284  ano_pid.o(.text)
    Center_Pos_Set                           0x08006031   Thumb Code    38  ano_sensor_basic.o(.text)
    Sensor_Basic_Init                        0x08006057   Thumb Code    14  ano_sensor_basic.o(.text)
    Sensor_Data_Prepare                      0x08006065   Thumb Code   434  ano_sensor_basic.o(.text)
    Auto_Take_Off_Land_Task                  0x08006245   Thumb Code   426  ano_altctrl.o(.text)
    Alt_2level_PID_Init                      0x080063ef   Thumb Code    54  ano_altctrl.o(.text)
    Alt_2level_Ctrl                          0x08006425   Thumb Code   446  ano_altctrl.o(.text)
    Alt_1level_PID_Init                      0x080065e3   Thumb Code    50  ano_altctrl.o(.text)
    Alt_1level_Ctrl                          0x08006615   Thumb Code   452  ano_altctrl.o(.text)
    Att_2level_PID_Init                      0x08006819   Thumb Code   170  ano_attctrl.o(.text)
    Att_1level_PID_Init                      0x080068c3   Thumb Code   190  ano_attctrl.o(.text)
    Set_Att_1level_Ki                        0x08006981   Thumb Code    64  ano_attctrl.o(.text)
    Set_Att_2level_Ki                        0x080069c1   Thumb Code    44  ano_attctrl.o(.text)
    Att_2level_Ctrl                          0x080069ed   Thumb Code  1446  ano_attctrl.o(.text)
    Att_1level_Ctrl                          0x08006f93   Thumb Code   680  ano_attctrl.o(.text)
    All_PID_Init                             0x0800726d   Thumb Code    24  ano_flightctrl.o(.text)
    ctrl_parameter_change_task               0x08007285   Thumb Code    32  ano_flightctrl.o(.text)
    one_key_roll                             0x080072a5   Thumb Code    28  ano_flightctrl.o(.text)
    one_key_take_off_task                    0x080072c1   Thumb Code    66  ano_flightctrl.o(.text)
    one_key_take_off                         0x08007303   Thumb Code    30  ano_flightctrl.o(.text)
    one_key_land                             0x08007321   Thumb Code     8  ano_flightctrl.o(.text)
    land_discriminat                         0x08007329   Thumb Code   172  ano_flightctrl.o(.text)
    Flight_State_Task                        0x080073d5   Thumb Code  1226  ano_flightctrl.o(.text)
    Swtich_State_Task                        0x0800789f   Thumb Code   356  ano_flightctrl.o(.text)
    Flight_Mode_Set                          0x08007a05   Thumb Code   182  ano_flightctrl.o(.text)
    ultrasonic                               0x08007abb   Thumb Code   330  ano_flightctrl.o(.text)
    flying_bling                             0x08007c05   Thumb Code   164  ano_flightctrl.o(.text)
    turnstile                                0x08007ca9   Thumb Code   646  ano_flightctrl.o(.text)
    search_bar                               0x08007f2f   Thumb Code   278  ano_flightctrl.o(.text)
    control                                  0x08008045   Thumb Code   182  ano_flightctrl.o(.text)
    Loc_1level_PID_Init                      0x08008119   Thumb Code   382  ano_locctrl.o(.text)
    Loc_1level_Ctrl                          0x08008297   Thumb Code  3098  ano_locctrl.o(.text)
    lidar                                    0x08008eb1   Thumb Code    34  ano_locctrl.o(.text)
    Mag_Data_Deal_Task                       0x08008fe7   Thumb Code   942  ano_magprocess.o(.text)
    Motor_Ctrl_Task                          0x080093a9   Thumb Code   466  ano_motorctrl.o(.text)
    Power_UpdateTask                         0x0800959d   Thumb Code   478  ano_power.o(.text)
    Fc_Sensor_Get                            0x080097b9   Thumb Code    76  ano_flightdatacal.o(.text)
    IMU_Update_Task                          0x08009805   Thumb Code   140  ano_flightdatacal.o(.text)
    Mag_Update_Task                          0x08009891   Thumb Code    50  ano_flightdatacal.o(.text)
    WCZ_Acc_Get_Task                         0x080098c3   Thumb Code    34  ano_flightdatacal.o(.text)
    WCZ_Fus_Task                             0x080098e5   Thumb Code   432  ano_flightdatacal.o(.text)
    Drv_LED_Init                             0x08009b21   Thumb Code   112  drv_led.o(.text)
    LED_1ms_DRV                              0x08009b91   Thumb Code   180  drv_led.o(.text)
    LED_Task2                                0x08009dfd   Thumb Code   856  drv_led.o(.text)
    Drv_AdcInit                              0x0800a1df   Thumb Code   168  drv_adc.o(.text)
    PID_Rest                                 0x0800a299   Thumb Code   306  ano_parameter.o(.text)
    Parame_Reset                             0x0800a3cb   Thumb Code   282  ano_parameter.o(.text)
    Ano_Parame_Read                          0x0800a507   Thumb Code    38  ano_parameter.o(.text)
    Ano_Parame_Write_task                    0x0800a52d   Thumb Code   114  ano_parameter.o(.text)
    AnoParRead                               0x0800a59f   Thumb Code  1692  ano_parameter.o(.text)
    AnoParWrite                              0x0800ac3b   Thumb Code  2782  ano_parameter.o(.text)
    Drv_SPI2_init                            0x0800b721   Thumb Code   190  drv_spi.o(.text)
    Drv_SPI2_RW                              0x0800b7df   Thumb Code    50  drv_spi.o(.text)
    Drv_SPI2_Transmit                        0x0800b811   Thumb Code    26  drv_spi.o(.text)
    Drv_SPI2_Receive                         0x0800b82b   Thumb Code    28  drv_spi.o(.text)
    PWM_Out_Init                             0x0800b851   Thumb Code   706  drv_pwm_out.o(.text)
    SetPwm                                   0x0800bb13   Thumb Code    52  drv_pwm_out.o(.text)
    TIM_CONF                                 0x0800bb6d   Thumb Code    86  drv_time.o(.text)
    TIM_NVIC                                 0x0800bbc3   Thumb Code    32  drv_time.o(.text)
    TIM_INIT                                 0x0800bbe3   Thumb Code    20  drv_time.o(.text)
    SysTick_Configuration                    0x0800bbf7   Thumb Code   100  drv_time.o(.text)
    GetSysTime_us                            0x0800bc5b   Thumb Code    58  drv_time.o(.text)
    Delay_us                                 0x0800bc95   Thumb Code    24  drv_time.o(.text)
    Delay_ms                                 0x0800bcad   Thumb Code    24  drv_time.o(.text)
    sys_time                                 0x0800bcc5   Thumb Code    12  drv_time.o(.text)
    SysTick_GetTick                          0x0800bcd1   Thumb Code     6  drv_time.o(.text)
    Get_Delta_T                              0x0800bcd7   Thumb Code    38  drv_time.o(.text)
    SysTick_Handler                          0x0800bcfd   Thumb Code    22  drv_time.o(.text)
    uart_init                                0x0800bd25   Thumb Code   170  drv_usart.o(.text)
    USART1_IRQHandler                        0x0800bdcf   Thumb Code   428  drv_usart.o(.text)
    Usart2_Init                              0x0800bf7b   Thumb Code   230  drv_usart.o(.text)
    Usart2_IRQ                               0x0800c061   Thumb Code   120  drv_usart.o(.text)
    Usart2_Send                              0x0800c0d9   Thumb Code    62  drv_usart.o(.text)
    Usart3_Init                              0x0800c117   Thumb Code   346  drv_usart.o(.text)
    Usart3_IRQ                               0x0800c271   Thumb Code   120  drv_usart.o(.text)
    Uart4_Init                               0x0800c327   Thumb Code   194  drv_usart.o(.text)
    Uart4_IRQ                                0x0800c3e9   Thumb Code   124  drv_usart.o(.text)
    Uart4_Send                               0x0800c465   Thumb Code    62  drv_usart.o(.text)
    Uart5_Init                               0x0800c4a3   Thumb Code   206  drv_usart.o(.text)
    Uart5_IRQ                                0x0800c571   Thumb Code   164  drv_usart.o(.text)
    Uart5_Send                               0x0800c615   Thumb Code    60  drv_usart.o(.text)
    Drv_AK8975CSPin_Init                     0x0800c65d   Thumb Code    60  drv_ak8975.o(.text)
    Drv_AK8975_Read                          0x0800c6d3   Thumb Code    48  drv_ak8975.o(.text)
    Mag_Get                                  0x0800c703   Thumb Code    84  drv_ak8975.o(.text)
    Drv_SPL06CSPin_Init                      0x0800c761   Thumb Code    60  drv_spl06.o(.text)
    spl0601_rateset                          0x0800c7ff   Thumb Code   306  drv_spl06.o(.text)
    spl0601_get_calib_param                  0x0800c931   Thumb Code   436  drv_spl06.o(.text)
    spl0601_start_temperature                0x0800cae5   Thumb Code    12  drv_spl06.o(.text)
    spl0601_start_pressure                   0x0800caf1   Thumb Code    12  drv_spl06.o(.text)
    spl0601_start_continuous                 0x0800cafd   Thumb Code    16  drv_spl06.o(.text)
    spl0601_get_raw_temp                     0x0800cb0d   Thumb Code   112  drv_spl06.o(.text)
    spl0601_get_raw_pressure                 0x0800cb7d   Thumb Code    96  drv_spl06.o(.text)
    Drv_Spl0601_Init                         0x0800cbdd   Thumb Code    80  drv_spl06.o(.text)
    spl0601_get_temperature                  0x0800cc2d   Thumb Code   134  drv_spl06.o(.text)
    spl0601_get_pressure                     0x0800ccb3   Thumb Code   214  drv_spl06.o(.text)
    Drv_Spl0601_Read                         0x0800cd89   Thumb Code   170  drv_spl06.o(.text)
    Flash_Init                               0x0800ced5   Thumb Code   370  drv_w25qxx.o(.text)
    Flash_SectorErase                        0x0800d097   Thumb Code    66  drv_w25qxx.o(.text)
    Flash_PageWrite                          0x0800d0d9   Thumb Code    84  drv_w25qxx.o(.text)
    Flash_PageRead                           0x0800d12d   Thumb Code    78  drv_w25qxx.o(.text)
    Flash_SectorsRead                        0x0800d17b   Thumb Code    52  drv_w25qxx.o(.text)
    Flash_SectorsWrite                       0x0800d1af   Thumb Code   104  drv_w25qxx.o(.text)
    Flash_GetInfo                            0x0800d217   Thumb Code     4  drv_w25qxx.o(.text)
    usbd_stm32_delay                         0x0800d229   Thumb Code    40  usbd_stm32f4xx_fs.o(.text)
    USBD_IntrEna                             0x0800d251   Thumb Code    26  usbd_stm32f4xx_fs.o(.text)
    USBD_Init                                0x0800d26b   Thumb Code   462  usbd_stm32f4xx_fs.o(.text)
    USBD_Connect                             0x0800d439   Thumb Code    62  usbd_stm32f4xx_fs.o(.text)
    USBD_SetAddress                          0x0800d477   Thumb Code    24  usbd_stm32f4xx_fs.o(.text)
    USBD_Reset                               0x0800d48f   Thumb Code   192  usbd_stm32f4xx_fs.o(.text)
    USBD_Suspend                             0x0800d54f   Thumb Code     2  usbd_stm32f4xx_fs.o(.text)
    USBD_Resume                              0x0800d551   Thumb Code     2  usbd_stm32f4xx_fs.o(.text)
    USBD_WakeUp                              0x0800d553   Thumb Code    34  usbd_stm32f4xx_fs.o(.text)
    USBD_WakeUpCfg                           0x0800d575   Thumb Code     2  usbd_stm32f4xx_fs.o(.text)
    USBD_Configure                           0x0800d5b3   Thumb Code    14  usbd_stm32f4xx_fs.o(.text)
    USBD_ConfigEP                            0x0800d5c1   Thumb Code   250  usbd_stm32f4xx_fs.o(.text)
    USBD_DirCtrlEP                           0x0800d6bb   Thumb Code     2  usbd_stm32f4xx_fs.o(.text)
    USBD_EnableEP                            0x0800d6bd   Thumb Code   200  usbd_stm32f4xx_fs.o(.text)
    USBD_DisableEP                           0x0800d785   Thumb Code   418  usbd_stm32f4xx_fs.o(.text)
    USBD_GetFrame                            0x0800d927   Thumb Code    12  usbd_stm32f4xx_fs.o(.text)
    USBD_ResetEP                             0x0800d933   Thumb Code   206  usbd_stm32f4xx_fs.o(.text)
    USBD_SetStallEP                          0x0800da01   Thumb Code   268  usbd_stm32f4xx_fs.o(.text)
    USBD_ClrStallEP                          0x0800db0d   Thumb Code   186  usbd_stm32f4xx_fs.o(.text)
    USBD_ClearEPBuf                          0x0800dbc7   Thumb Code    70  usbd_stm32f4xx_fs.o(.text)
    USBD_ReadEP                              0x0800dc0d   Thumb Code   200  usbd_stm32f4xx_fs.o(.text)
    USBD_WriteEP                             0x0800dcd5   Thumb Code   368  usbd_stm32f4xx_fs.o(.text)
    OTG_FS_IRQHandler                        0x0800de45   Thumb Code  1660  usbd_stm32f4xx_fs.o(.text)
    GPS_ubx_check_sum                        0x0800e4e1   Thumb Code    92  drv_gps.o(.text)
    gps_baudrate_config                      0x0800e567   Thumb Code    32  drv_gps.o(.text)
    gps_config                               0x0800e587   Thumb Code    52  drv_gps.o(.text)
    Drv_GpsPin_Init                          0x0800e5bb   Thumb Code   324  drv_gps.o(.text)
    GPS_data_analysis                        0x0800e6ff   Thumb Code   650  drv_gps.o(.text)
    Uart1_GPS_IRQ                            0x0800e989   Thumb Code   156  drv_gps.o(.text)
    WCXY_Acc_Get_Task                        0x0800ea25   Thumb Code    66  drv_gps.o(.text)
    GPS_Data_Processing_Task                 0x0800ea67   Thumb Code   336  drv_gps.o(.text)
    Drv_HeatingInit                          0x0800ebf5   Thumb Code   152  drv_heating.o(.text)
    Drv_HeatingSet                           0x0800ec8d   Thumb Code    22  drv_heating.o(.text)
    Thermostatic_Ctrl_Task                   0x0800eca3   Thumb Code   564  drv_heating.o(.text)
    OpenMV_Byte_Get                          0x0800f06f   Thumb Code   264  drv_openmv.o(.text)
    OpenMV_Offline_Check                     0x0800f177   Thumb Code    34  drv_openmv.o(.text)
    uasrt2_senddata                          0x0800f199   Thumb Code   130  drv_openmv.o(.text)
    Drv_OFInit                               0x0800f235   Thumb Code   288  drv_up_flow.o(.text)
    OFGetByte                                0x0800f355   Thumb Code   232  drv_up_flow.o(.text)
    DrvGpioSenser088CsPinInit                0x0800f459   Thumb Code   110  drv_bmi088.o(.text)
    DrvBmi088Init                            0x0800f56d   Thumb Code   240  drv_bmi088.o(.text)
    DrvBmi088ReadServices                    0x0800f65d   Thumb Code   116  drv_bmi088.o(.text)
    DrvBmi088TemperatureRead                 0x0800f6d1   Thumb Code     8  drv_bmi088.o(.text)
    DrvBmi088AccelerationRead                0x0800f6d9   Thumb Code     8  drv_bmi088.o(.text)
    DrvRcInputInit                           0x0800f6fd   Thumb Code    16  drv_bsp.o(.text)
    DrvSbusGetOneByte                        0x0800f70d   Thumb Code   560  drv_bsp.o(.text)
    DrvPpmGetOneCh                           0x0800f93d   Thumb Code    92  drv_bsp.o(.text)
    DrvRcInputTask                           0x0800fa41   Thumb Code   278  drv_bsp.o(.text)
    DrvRcSbusInit                            0x0800fb5d   Thumb Code   166  drv_rcin.o(.text)
    Sbus_IRQH                                0x0800fc03   Thumb Code    40  drv_rcin.o(.text)
    DrvRcPpmInit                             0x0800fc2b   Thumb Code   178  drv_rcin.o(.text)
    PPM_IRQH                                 0x0800fcdd   Thumb Code    82  drv_rcin.o(.text)
    NVIC_PriorityGroupConfig                 0x0800fd45   Thumb Code    54  misc.o(.text)
    NVIC_Init                                0x0800fd7b   Thumb Code   164  misc.o(.text)
    NVIC_SetVectorTable                      0x0800fe1f   Thumb Code    60  misc.o(.text)
    NVIC_SystemLPConfig                      0x0800fe5b   Thumb Code    78  misc.o(.text)
    SysTick_CLKSourceConfig                  0x0800fea9   Thumb Code    62  misc.o(.text)
    ADC_DeInit                               0x0800ff31   Thumb Code    22  stm32f4xx_adc.o(.text)
    ADC_Init                                 0x0800ff47   Thumb Code   402  stm32f4xx_adc.o(.text)
    ADC_StructInit                           0x080100d9   Thumb Code    20  stm32f4xx_adc.o(.text)
    ADC_CommonInit                           0x080100ed   Thumb Code   342  stm32f4xx_adc.o(.text)
    ADC_CommonStructInit                     0x08010243   Thumb Code    12  stm32f4xx_adc.o(.text)
    ADC_Cmd                                  0x0801024f   Thumb Code    76  stm32f4xx_adc.o(.text)
    ADC_AnalogWatchdogCmd                    0x0801029b   Thumb Code   102  stm32f4xx_adc.o(.text)
    ADC_AnalogWatchdogThresholdsConfig       0x08010301   Thumb Code   186  stm32f4xx_adc.o(.text)
    ADC_AnalogWatchdogSingleChannelConfig    0x080103bb   Thumb Code   140  stm32f4xx_adc.o(.text)
    ADC_TempSensorVrefintCmd                 0x08010447   Thumb Code    58  stm32f4xx_adc.o(.text)
    ADC_VBATCmd                              0x08010481   Thumb Code    58  stm32f4xx_adc.o(.text)
    ADC_RegularChannelConfig                 0x080104bb   Thumb Code   416  stm32f4xx_adc.o(.text)
    ADC_SoftwareStartConv                    0x0801065b   Thumb Code    46  stm32f4xx_adc.o(.text)
    ADC_GetSoftwareStartConvStatus           0x08010689   Thumb Code    56  stm32f4xx_adc.o(.text)
    ADC_EOCOnEachRegularChannelCmd           0x080106c1   Thumb Code    80  stm32f4xx_adc.o(.text)
    ADC_ContinuousModeCmd                    0x08010711   Thumb Code    80  stm32f4xx_adc.o(.text)
    ADC_DiscModeChannelCountConfig           0x08010761   Thumb Code   100  stm32f4xx_adc.o(.text)
    ADC_DiscModeCmd                          0x080107c5   Thumb Code    80  stm32f4xx_adc.o(.text)
    ADC_GetConversionValue                   0x08010815   Thumb Code    42  stm32f4xx_adc.o(.text)
    ADC_GetMultiModeConversionValue          0x0801083f   Thumb Code     6  stm32f4xx_adc.o(.text)
    ADC_DMACmd                               0x08010845   Thumb Code    80  stm32f4xx_adc.o(.text)
    ADC_DMARequestAfterLastTransferCmd       0x08010895   Thumb Code    80  stm32f4xx_adc.o(.text)
    ADC_MultiModeDMARequestAfterLastTransferCmd 0x080108e5   Thumb Code    62  stm32f4xx_adc.o(.text)
    ADC_InjectedChannelConfig                0x08010923   Thumb Code   340  stm32f4xx_adc.o(.text)
    ADC_InjectedSequencerLengthConfig        0x08010a77   Thumb Code    84  stm32f4xx_adc.o(.text)
    ADC_SetInjectedOffset                    0x08010acb   Thumb Code   108  stm32f4xx_adc.o(.text)
    ADC_ExternalTrigInjectedConvConfig       0x08010b37   Thumb Code   174  stm32f4xx_adc.o(.text)
    ADC_ExternalTrigInjectedConvEdgeConfig   0x08010be5   Thumb Code    86  stm32f4xx_adc.o(.text)
    ADC_SoftwareStartInjectedConv            0x08010c3b   Thumb Code    46  stm32f4xx_adc.o(.text)
    ADC_GetSoftwareStartInjectedConvCmdStatus 0x08010c69   Thumb Code    56  stm32f4xx_adc.o(.text)
    ADC_AutoInjectedConvCmd                  0x08010ca1   Thumb Code    80  stm32f4xx_adc.o(.text)
    ADC_InjectedDiscModeCmd                  0x08010cf1   Thumb Code    80  stm32f4xx_adc.o(.text)
    ADC_GetInjectedConversionValue           0x08010d41   Thumb Code    92  stm32f4xx_adc.o(.text)
    ADC_ITConfig                             0x08010d9d   Thumb Code   136  stm32f4xx_adc.o(.text)
    ADC_GetFlagStatus                        0x08010e25   Thumb Code    94  stm32f4xx_adc.o(.text)
    ADC_ClearFlag                            0x08010e83   Thumb Code    66  stm32f4xx_adc.o(.text)
    ADC_GetITStatus                          0x08010ec5   Thumb Code   126  stm32f4xx_adc.o(.text)
    ADC_ClearITPendingBit                    0x08010f43   Thumb Code    92  stm32f4xx_adc.o(.text)
    DMA_DeInit                               0x08010fad   Thumb Code   462  stm32f4xx_dma.o(.text)
    DMA_Init                                 0x0801117b   Thumb Code   744  stm32f4xx_dma.o(.text)
    DMA_StructInit                           0x08011463   Thumb Code    34  stm32f4xx_dma.o(.text)
    DMA_Cmd                                  0x08011485   Thumb Code   186  stm32f4xx_dma.o(.text)
    DMA_PeriphIncOffsetSizeConfig            0x0801153f   Thumb Code   188  stm32f4xx_dma.o(.text)
    DMA_FlowControllerConfig                 0x080115fb   Thumb Code   186  stm32f4xx_dma.o(.text)
    DMA_SetCurrDataCounter                   0x080116b5   Thumb Code   148  stm32f4xx_dma.o(.text)
    DMA_GetCurrDataCounter                   0x08011749   Thumb Code   148  stm32f4xx_dma.o(.text)
    DMA_DoubleBufferModeConfig               0x080117dd   Thumb Code   204  stm32f4xx_dma.o(.text)
    DMA_DoubleBufferModeCmd                  0x080118a9   Thumb Code   186  stm32f4xx_dma.o(.text)
    DMA_MemoryTargetConfig                   0x08011963   Thumb Code   178  stm32f4xx_dma.o(.text)
    DMA_GetCurrentMemoryTarget               0x08011a15   Thumb Code   162  stm32f4xx_dma.o(.text)
    DMA_GetCmdStatus                         0x08011ab7   Thumb Code   162  stm32f4xx_dma.o(.text)
    DMA_GetFIFOStatus                        0x08011b59   Thumb Code   154  stm32f4xx_dma.o(.text)
    DMA_GetFlagStatus                        0x08011bf3   Thumb Code   486  stm32f4xx_dma.o(.text)
    DMA_ClearFlag                            0x08011dd9   Thumb Code   220  stm32f4xx_dma.o(.text)
    DMA_ITConfig                             0x08011eb5   Thumb Code   244  stm32f4xx_dma.o(.text)
    DMA_GetITStatus                          0x08011fa9   Thumb Code   590  stm32f4xx_dma.o(.text)
    DMA_ClearITPendingBit                    0x080121f7   Thumb Code   222  stm32f4xx_dma.o(.text)
    EXTI_DeInit                              0x08012379   Thumb Code    28  stm32f4xx_exti.o(.text)
    EXTI_Init                                0x08012395   Thumb Code   236  stm32f4xx_exti.o(.text)
    EXTI_StructInit                          0x08012481   Thumb Code    16  stm32f4xx_exti.o(.text)
    EXTI_GenerateSWInterrupt                 0x08012491   Thumb Code    38  stm32f4xx_exti.o(.text)
    EXTI_GetFlagStatus                       0x080124b7   Thumb Code   158  stm32f4xx_exti.o(.text)
    EXTI_ClearFlag                           0x08012555   Thumb Code    30  stm32f4xx_exti.o(.text)
    EXTI_GetITStatus                         0x08012573   Thumb Code   172  stm32f4xx_exti.o(.text)
    EXTI_ClearITPendingBit                   0x0801261f   Thumb Code    32  stm32f4xx_exti.o(.text)
    GPIO_DeInit                              0x08012685   Thumb Code   284  stm32f4xx_gpio.o(.text)
    GPIO_Init                                0x080127a1   Thumb Code   342  stm32f4xx_gpio.o(.text)
    GPIO_StructInit                          0x080128f7   Thumb Code    18  stm32f4xx_gpio.o(.text)
    GPIO_PinLockConfig                       0x08012909   Thumb Code   122  stm32f4xx_gpio.o(.text)
    GPIO_ReadInputDataBit                    0x08012983   Thumb Code   182  stm32f4xx_gpio.o(.text)
    GPIO_ReadInputData                       0x08012a39   Thumb Code   174  stm32f4xx_gpio.o(.text)
    GPIO_ReadOutputDataBit                   0x08012ae7   Thumb Code   186  stm32f4xx_gpio.o(.text)
    GPIO_ReadOutputData                      0x08012ba1   Thumb Code    78  stm32f4xx_gpio.o(.text)
    GPIO_SetBits                             0x08012bef   Thumb Code    98  stm32f4xx_gpio.o(.text)
    GPIO_ResetBits                           0x08012c51   Thumb Code    98  stm32f4xx_gpio.o(.text)
    GPIO_WriteBit                            0x08012cb3   Thumb Code   200  stm32f4xx_gpio.o(.text)
    GPIO_Write                               0x08012d7b   Thumb Code    78  stm32f4xx_gpio.o(.text)
    GPIO_ToggleBits                          0x08012dc9   Thumb Code    82  stm32f4xx_gpio.o(.text)
    GPIO_PinAFConfig                         0x08012e1b   Thumb Code   384  stm32f4xx_gpio.o(.text)
    RCC_DeInit                               0x08012f9d   Thumb Code    60  stm32f4xx_rcc.o(.text)
    RCC_HSEConfig                            0x08012fd9   Thumb Code    38  stm32f4xx_rcc.o(.text)
    RCC_GetFlagStatus                        0x08012fff   Thumb Code   130  stm32f4xx_rcc.o(.text)
    RCC_WaitForHSEStartUp                    0x08013081   Thumb Code    56  stm32f4xx_rcc.o(.text)
    RCC_AdjustHSICalibrationValue            0x080130b9   Thumb Code    38  stm32f4xx_rcc.o(.text)
    RCC_HSICmd                               0x080130df   Thumb Code    28  stm32f4xx_rcc.o(.text)
    RCC_LSEConfig                            0x080130fb   Thumb Code    72  stm32f4xx_rcc.o(.text)
    RCC_LSICmd                               0x08013143   Thumb Code    28  stm32f4xx_rcc.o(.text)
    RCC_PLLConfig                            0x0801315f   Thumb Code   156  stm32f4xx_rcc.o(.text)
    RCC_PLLCmd                               0x080131fb   Thumb Code    28  stm32f4xx_rcc.o(.text)
    RCC_PLLI2SConfig                         0x08013217   Thumb Code    62  stm32f4xx_rcc.o(.text)
    RCC_PLLI2SCmd                            0x08013255   Thumb Code    28  stm32f4xx_rcc.o(.text)
    RCC_ClockSecuritySystemCmd               0x08013271   Thumb Code    28  stm32f4xx_rcc.o(.text)
    RCC_MCO1Config                           0x0801328d   Thumb Code   102  stm32f4xx_rcc.o(.text)
    RCC_MCO2Config                           0x080132f3   Thumb Code   102  stm32f4xx_rcc.o(.text)
    RCC_SYSCLKConfig                         0x08013359   Thumb Code   124  stm32f4xx_rcc.o(.text)
    RCC_GetSYSCLKSource                      0x080133d5   Thumb Code    10  stm32f4xx_rcc.o(.text)
    RCC_HCLKConfig                           0x080133df   Thumb Code    68  stm32f4xx_rcc.o(.text)
    RCC_PCLK1Config                          0x08013423   Thumb Code    60  stm32f4xx_rcc.o(.text)
    RCC_PCLK2Config                          0x0801345f   Thumb Code    62  stm32f4xx_rcc.o(.text)
    RCC_GetClocksFreq                        0x0801349d   Thumb Code   214  stm32f4xx_rcc.o(.text)
    RCC_RTCCLKConfig                         0x08013573   Thumb Code   262  stm32f4xx_rcc.o(.text)
    RCC_RTCCLKCmd                            0x08013679   Thumb Code    30  stm32f4xx_rcc.o(.text)
    RCC_BackupResetCmd                       0x08013697   Thumb Code    32  stm32f4xx_rcc.o(.text)
    RCC_I2SCLKConfig                         0x080136b7   Thumb Code    30  stm32f4xx_rcc.o(.text)
    RCC_AHB1PeriphClockCmd                   0x080136d5   Thumb Code    82  stm32f4xx_rcc.o(.text)
    RCC_AHB2PeriphClockCmd                   0x08013727   Thumb Code    82  stm32f4xx_rcc.o(.text)
    RCC_AHB3PeriphClockCmd                   0x08013779   Thumb Code   232  stm32f4xx_rcc.o(.text)
    RCC_APB1PeriphClockCmd                   0x08013861   Thumb Code    82  stm32f4xx_rcc.o(.text)
    RCC_APB2PeriphClockCmd                   0x080138b3   Thumb Code    82  stm32f4xx_rcc.o(.text)
    RCC_AHB1PeriphResetCmd                   0x08013905   Thumb Code    82  stm32f4xx_rcc.o(.text)
    RCC_AHB2PeriphResetCmd                   0x08013957   Thumb Code    82  stm32f4xx_rcc.o(.text)
    RCC_AHB3PeriphResetCmd                   0x080139a9   Thumb Code    82  stm32f4xx_rcc.o(.text)
    RCC_APB1PeriphResetCmd                   0x080139fb   Thumb Code    82  stm32f4xx_rcc.o(.text)
    RCC_APB2PeriphResetCmd                   0x08013a4d   Thumb Code    82  stm32f4xx_rcc.o(.text)
    RCC_AHB1PeriphClockLPModeCmd             0x08013a9f   Thumb Code    82  stm32f4xx_rcc.o(.text)
    RCC_AHB2PeriphClockLPModeCmd             0x08013af1   Thumb Code    82  stm32f4xx_rcc.o(.text)
    RCC_AHB3PeriphClockLPModeCmd             0x08013b43   Thumb Code    82  stm32f4xx_rcc.o(.text)
    RCC_APB1PeriphClockLPModeCmd             0x08013b95   Thumb Code    82  stm32f4xx_rcc.o(.text)
    RCC_APB2PeriphClockLPModeCmd             0x08013be7   Thumb Code   106  stm32f4xx_rcc.o(.text)
    RCC_ITConfig                             0x08013c51   Thumb Code    74  stm32f4xx_rcc.o(.text)
    RCC_ClearFlag                            0x08013c9b   Thumb Code    18  stm32f4xx_rcc.o(.text)
    RCC_GetITStatus                          0x08013cad   Thumb Code    68  stm32f4xx_rcc.o(.text)
    RCC_ClearITPendingBit                    0x08013cf1   Thumb Code    34  stm32f4xx_rcc.o(.text)
    SPI_I2S_DeInit                           0x08013d19   Thumb Code   104  stm32f4xx_spi.o(.text)
    SPI_Init                                 0x08013d81   Thumb Code   348  stm32f4xx_spi.o(.text)
    I2S_Init                                 0x08013edd   Thumb Code   508  stm32f4xx_spi.o(.text)
    SPI_StructInit                           0x080140d9   Thumb Code    24  stm32f4xx_spi.o(.text)
    I2S_StructInit                           0x080140f1   Thumb Code   104  stm32f4xx_spi.o(.text)
    SPI_Cmd                                  0x08014159   Thumb Code    82  stm32f4xx_spi.o(.text)
    I2S_Cmd                                  0x080141ab   Thumb Code    88  stm32f4xx_spi.o(.text)
    SPI_DataSizeConfig                       0x08014203   Thumb Code    78  stm32f4xx_spi.o(.text)
    SPI_BiDirectionalLineConfig              0x08014251   Thumb Code    94  stm32f4xx_spi.o(.text)
    SPI_NSSInternalSoftwareConfig            0x080142af   Thumb Code    96  stm32f4xx_spi.o(.text)
    SPI_SSOutputCmd                          0x0801430f   Thumb Code    82  stm32f4xx_spi.o(.text)
    SPI_TIModeCmd                            0x08014361   Thumb Code    82  stm32f4xx_spi.o(.text)
    I2S_FullDuplexConfig                     0x080143b3   Thumb Code   258  stm32f4xx_spi.o(.text)
    SPI_I2S_ReceiveData                      0x080144b5   Thumb Code    52  stm32f4xx_spi.o(.text)
    SPI_I2S_SendData                         0x080144e9   Thumb Code    54  stm32f4xx_spi.o(.text)
    SPI_CalculateCRC                         0x0801451f   Thumb Code    98  stm32f4xx_spi.o(.text)
    SPI_TransmitCRC                          0x08014581   Thumb Code    46  stm32f4xx_spi.o(.text)
    SPI_GetCRC                               0x080145af   Thumb Code    74  stm32f4xx_spi.o(.text)
    SPI_GetCRCPolynomial                     0x080145f9   Thumb Code    40  stm32f4xx_spi.o(.text)
    SPI_I2S_DMACmd                           0x08014621   Thumb Code   114  stm32f4xx_spi.o(.text)
    SPI_I2S_ITConfig                         0x08014693   Thumb Code   138  stm32f4xx_spi.o(.text)
    SPI_I2S_GetFlagStatus                    0x0801471d   Thumb Code   120  stm32f4xx_spi.o(.text)
    SPI_I2S_ClearFlag                        0x08014795   Thumb Code    74  stm32f4xx_spi.o(.text)
    SPI_I2S_GetITStatus                      0x080147df   Thumb Code   154  stm32f4xx_spi.o(.text)
    SPI_I2S_ClearITPendingBit                0x08014879   Thumb Code    86  stm32f4xx_spi.o(.text)
    TIM_DeInit                               0x080148e1   Thumb Code   440  stm32f4xx_tim.o(.text)
    TIM_TimeBaseInit                         0x08014a99   Thumb Code   278  stm32f4xx_tim.o(.text)
    TIM_TimeBaseStructInit                   0x08014baf   Thumb Code    18  stm32f4xx_tim.o(.text)
    TIM_PrescalerConfig                      0x08014bc1   Thumb Code   128  stm32f4xx_tim.o(.text)
    TIM_CounterModeConfig                    0x08014c41   Thumb Code   100  stm32f4xx_tim.o(.text)
    TIM_SetCounter                           0x08014ca5   Thumb Code   222  stm32f4xx_tim.o(.text)
    TIM_SetAutoreload                        0x08014d83   Thumb Code   108  stm32f4xx_tim.o(.text)
    TIM_GetCounter                           0x08014def   Thumb Code   106  stm32f4xx_tim.o(.text)
    TIM_GetPrescaler                         0x08014e59   Thumb Code   106  stm32f4xx_tim.o(.text)
    TIM_UpdateDisableConfig                  0x08014ec3   Thumb Code   148  stm32f4xx_tim.o(.text)
    TIM_UpdateRequestConfig                  0x08014f57   Thumb Code   148  stm32f4xx_tim.o(.text)
    TIM_ARRPreloadConfig                     0x08014feb   Thumb Code   148  stm32f4xx_tim.o(.text)
    TIM_SelectOnePulseMode                   0x0801507f   Thumb Code   142  stm32f4xx_tim.o(.text)
    TIM_SetClockDivision                     0x0801510d   Thumb Code   192  stm32f4xx_tim.o(.text)
    TIM_Cmd                                  0x080151cd   Thumb Code   148  stm32f4xx_tim.o(.text)
    TIM_OC1Init                              0x08015261   Thumb Code   416  stm32f4xx_tim.o(.text)
    TIM_OC2Init                              0x08015401   Thumb Code   486  stm32f4xx_tim.o(.text)
    TIM_OC3Init                              0x080155e7   Thumb Code   416  stm32f4xx_tim.o(.text)
    TIM_OC4Init                              0x08015787   Thumb Code   300  stm32f4xx_tim.o(.text)
    TIM_OCStructInit                         0x080158b3   Thumb Code    20  stm32f4xx_tim.o(.text)
    TIM_SelectOCxM                           0x080158c7   Thumb Code   256  stm32f4xx_tim.o(.text)
    TIM_SetCompare1                          0x080159c7   Thumb Code   142  stm32f4xx_tim.o(.text)
    TIM_SetCompare2                          0x08015a55   Thumb Code    72  stm32f4xx_tim.o(.text)
    TIM_SetCompare3                          0x08015a9d   Thumb Code    60  stm32f4xx_tim.o(.text)
    TIM_SetCompare4                          0x08015ad9   Thumb Code    60  stm32f4xx_tim.o(.text)
    TIM_ForcedOC1Config                      0x08015b15   Thumb Code   130  stm32f4xx_tim.o(.text)
    TIM_ForcedOC2Config                      0x08015b97   Thumb Code   114  stm32f4xx_tim.o(.text)
    TIM_ForcedOC3Config                      0x08015c09   Thumb Code    94  stm32f4xx_tim.o(.text)
    TIM_ForcedOC4Config                      0x08015c67   Thumb Code   102  stm32f4xx_tim.o(.text)
    TIM_OC1PreloadConfig                     0x08015ccd   Thumb Code   124  stm32f4xx_tim.o(.text)
    TIM_OC2PreloadConfig                     0x08015d49   Thumb Code   108  stm32f4xx_tim.o(.text)
    TIM_OC3PreloadConfig                     0x08015db5   Thumb Code   136  stm32f4xx_tim.o(.text)
    TIM_OC4PreloadConfig                     0x08015e3d   Thumb Code    96  stm32f4xx_tim.o(.text)
    TIM_OC1FastConfig                        0x08015e9d   Thumb Code   124  stm32f4xx_tim.o(.text)
    TIM_OC2FastConfig                        0x08015f19   Thumb Code   108  stm32f4xx_tim.o(.text)
    TIM_OC3FastConfig                        0x08015f85   Thumb Code    88  stm32f4xx_tim.o(.text)
    TIM_OC4FastConfig                        0x08015fdd   Thumb Code    96  stm32f4xx_tim.o(.text)
    TIM_ClearOC1Ref                          0x0801603d   Thumb Code   124  stm32f4xx_tim.o(.text)
    TIM_ClearOC2Ref                          0x080160b9   Thumb Code   106  stm32f4xx_tim.o(.text)
    TIM_ClearOC3Ref                          0x08016123   Thumb Code    88  stm32f4xx_tim.o(.text)
    TIM_ClearOC4Ref                          0x0801617b   Thumb Code    94  stm32f4xx_tim.o(.text)
    TIM_OC1PolarityConfig                    0x080161d9   Thumb Code   174  stm32f4xx_tim.o(.text)
    TIM_OC1NPolarityConfig                   0x08016287   Thumb Code    64  stm32f4xx_tim.o(.text)
    TIM_OC2PolarityConfig                    0x080162c7   Thumb Code   108  stm32f4xx_tim.o(.text)
    TIM_OC2NPolarityConfig                   0x08016333   Thumb Code    72  stm32f4xx_tim.o(.text)
    TIM_OC3PolarityConfig                    0x0801637b   Thumb Code    96  stm32f4xx_tim.o(.text)
    TIM_OC3NPolarityConfig                   0x080163db   Thumb Code    72  stm32f4xx_tim.o(.text)
    TIM_OC4PolarityConfig                    0x08016423   Thumb Code    96  stm32f4xx_tim.o(.text)
    TIM_CCxCmd                               0x08016483   Thumb Code   168  stm32f4xx_tim.o(.text)
    TIM_CCxNCmd                              0x0801652b   Thumb Code   104  stm32f4xx_tim.o(.text)
    TIM_SetIC4Prescaler                      0x08016593   Thumb Code   106  stm32f4xx_tim.o(.text)
    TIM_SetIC3Prescaler                      0x0801667d   Thumb Code    98  stm32f4xx_tim.o(.text)
    TIM_SetIC2Prescaler                      0x08016727   Thumb Code   118  stm32f4xx_tim.o(.text)
    TIM_SetIC1Prescaler                      0x080167ed   Thumb Code   134  stm32f4xx_tim.o(.text)
    TIM_ICInit                               0x080168ad   Thumb Code   508  stm32f4xx_tim.o(.text)
    TIM_ICStructInit                         0x08016aa9   Thumb Code    18  stm32f4xx_tim.o(.text)
    TIM_PWMIConfig                           0x08016abb   Thumb Code   184  stm32f4xx_tim.o(.text)
    TIM_GetCapture1                          0x08016b73   Thumb Code    92  stm32f4xx_tim.o(.text)
    TIM_GetCapture2                          0x08016bcf   Thumb Code    68  stm32f4xx_tim.o(.text)
    TIM_GetCapture3                          0x08016c13   Thumb Code    56  stm32f4xx_tim.o(.text)
    TIM_GetCapture4                          0x08016c4b   Thumb Code    56  stm32f4xx_tim.o(.text)
    TIM_BDTRConfig                           0x08016c83   Thumb Code   222  stm32f4xx_tim.o(.text)
    TIM_BDTRStructInit                       0x08016d61   Thumb Code    18  stm32f4xx_tim.o(.text)
    TIM_CtrlPWMOutputs                       0x08016d73   Thumb Code    78  stm32f4xx_tim.o(.text)
    TIM_SelectCOM                            0x08016dc1   Thumb Code    72  stm32f4xx_tim.o(.text)
    TIM_CCPreloadControl                     0x08016e09   Thumb Code    72  stm32f4xx_tim.o(.text)
    TIM_ITConfig                             0x08016e51   Thumb Code   218  stm32f4xx_tim.o(.text)
    TIM_GenerateEvent                        0x08016f2b   Thumb Code   126  stm32f4xx_tim.o(.text)
    TIM_GetFlagStatus                        0x08016fa9   Thumb Code   188  stm32f4xx_tim.o(.text)
    TIM_ClearFlag                            0x08017065   Thumb Code   108  stm32f4xx_tim.o(.text)
    TIM_GetITStatus                          0x080170d1   Thumb Code   186  stm32f4xx_tim.o(.text)
    TIM_ClearITPendingBit                    0x0801718b   Thumb Code   108  stm32f4xx_tim.o(.text)
    TIM_DMAConfig                            0x080171f7   Thumb Code   334  stm32f4xx_tim.o(.text)
    TIM_DMACmd                               0x08017345   Thumb Code   126  stm32f4xx_tim.o(.text)
    TIM_SelectCCDMA                          0x080173c3   Thumb Code    96  stm32f4xx_tim.o(.text)
    TIM_InternalClockConfig                  0x08017423   Thumb Code    76  stm32f4xx_tim.o(.text)
    TIM_SelectInputTrigger                   0x0801746f   Thumb Code   148  stm32f4xx_tim.o(.text)
    TIM_ITRxExternalClockConfig              0x08017503   Thumb Code   110  stm32f4xx_tim.o(.text)
    TIM_TIxExternalClockConfig               0x08017571   Thumb Code   184  stm32f4xx_tim.o(.text)
    TIM_ETRConfig                            0x08017629   Thumb Code   164  stm32f4xx_tim.o(.text)
    TIM_ETRClockMode1Config                  0x080176cd   Thumb Code   228  stm32f4xx_tim.o(.text)
    TIM_ETRClockMode2Config                  0x080177b1   Thumb Code   152  stm32f4xx_tim.o(.text)
    TIM_SelectOutputTrigger                  0x08017849   Thumb Code   126  stm32f4xx_tim.o(.text)
    TIM_SelectSlaveMode                      0x080178c7   Thumb Code   112  stm32f4xx_tim.o(.text)
    TIM_SelectMasterSlaveMode                0x08017937   Thumb Code   102  stm32f4xx_tim.o(.text)
    TIM_EncoderInterfaceConfig               0x0801799d   Thumb Code   226  stm32f4xx_tim.o(.text)
    TIM_SelectHallSensor                     0x08017a7f   Thumb Code   108  stm32f4xx_tim.o(.text)
    TIM_RemapConfig                          0x08017aeb   Thumb Code   138  stm32f4xx_tim.o(.text)
    USART_DeInit                             0x08017b75   Thumb Code   202  stm32f4xx_usart.o(.text)
    USART_Init                               0x08017c3f   Thumb Code   456  stm32f4xx_usart.o(.text)
    USART_StructInit                         0x08017e07   Thumb Code    24  stm32f4xx_usart.o(.text)
    USART_ClockInit                          0x08017e1f   Thumb Code   166  stm32f4xx_usart.o(.text)
    USART_ClockStructInit                    0x08017ec5   Thumb Code    12  stm32f4xx_usart.o(.text)
    USART_Cmd                                0x08017ed1   Thumb Code    96  stm32f4xx_usart.o(.text)
    USART_SetPrescaler                       0x08017f31   Thumb Code   160  stm32f4xx_usart.o(.text)
    USART_OverSampling8Cmd                   0x08017fd1   Thumb Code    98  stm32f4xx_usart.o(.text)
    USART_OneBitMethodCmd                    0x08018033   Thumb Code   100  stm32f4xx_usart.o(.text)
    USART_SendData                           0x08018097   Thumb Code    84  stm32f4xx_usart.o(.text)
    USART_ReceiveData                        0x080180eb   Thumb Code    62  stm32f4xx_usart.o(.text)
    USART_SetAddress                         0x08018129   Thumb Code    92  stm32f4xx_usart.o(.text)
    USART_ReceiverWakeUpCmd                  0x08018185   Thumb Code   100  stm32f4xx_usart.o(.text)
    USART_WakeUpConfig                       0x080181e9   Thumb Code    96  stm32f4xx_usart.o(.text)
    USART_LINBreakDetectLengthConfig         0x08018249   Thumb Code    94  stm32f4xx_usart.o(.text)
    USART_LINCmd                             0x080182a7   Thumb Code   100  stm32f4xx_usart.o(.text)
    USART_SendBreak                          0x0801830b   Thumb Code    64  stm32f4xx_usart.o(.text)
    USART_HalfDuplexCmd                      0x0801834b   Thumb Code   100  stm32f4xx_usart.o(.text)
    USART_SetGuardTime                       0x080183af   Thumb Code    86  stm32f4xx_usart.o(.text)
    USART_SmartCardCmd                       0x08018405   Thumb Code    88  stm32f4xx_usart.o(.text)
    USART_SmartCardNACKCmd                   0x0801845d   Thumb Code    88  stm32f4xx_usart.o(.text)
    USART_IrDAConfig                         0x080184b5   Thumb Code    94  stm32f4xx_usart.o(.text)
    USART_IrDACmd                            0x08018513   Thumb Code   100  stm32f4xx_usart.o(.text)
    USART_DMACmd                             0x08018577   Thumb Code   120  stm32f4xx_usart.o(.text)
    USART_ITConfig                           0x080185ef   Thumb Code   268  stm32f4xx_usart.o(.text)
    USART_GetFlagStatus                      0x080186fb   Thumb Code   176  stm32f4xx_usart.o(.text)
    USART_ClearFlag                          0x080187ab   Thumb Code   160  stm32f4xx_usart.o(.text)
    USART_GetITStatus                        0x0801884b   Thumb Code   284  stm32f4xx_usart.o(.text)
    USART_ClearITPendingBit                  0x08018967   Thumb Code   170  stm32f4xx_usart.o(.text)
    SystemInit                               0x08018b05   Thumb Code    88  system_stm32f4xx.o(.text)
    SystemCoreClockUpdate                    0x08018b5d   Thumb Code   174  system_stm32f4xx.o(.text)
    Reset_Handler                            0x08018c39   Thumb Code     8  startup_stm32f4xx.o(.text)
    HardFault_Handler                        0x08018c43   Thumb Code     2  startup_stm32f4xx.o(.text)
    PendSV_Handler                           0x08018c4f   Thumb Code     2  startup_stm32f4xx.o(.text)
    ADC_IRQHandler                           0x08018c53   Thumb Code     0  startup_stm32f4xx.o(.text)
    CAN1_RX0_IRQHandler                      0x08018c53   Thumb Code     0  startup_stm32f4xx.o(.text)
    CAN1_RX1_IRQHandler                      0x08018c53   Thumb Code     0  startup_stm32f4xx.o(.text)
    CAN1_SCE_IRQHandler                      0x08018c53   Thumb Code     0  startup_stm32f4xx.o(.text)
    CAN1_TX_IRQHandler                       0x08018c53   Thumb Code     0  startup_stm32f4xx.o(.text)
    CAN2_RX0_IRQHandler                      0x08018c53   Thumb Code     0  startup_stm32f4xx.o(.text)
    CAN2_RX1_IRQHandler                      0x08018c53   Thumb Code     0  startup_stm32f4xx.o(.text)
    CAN2_SCE_IRQHandler                      0x08018c53   Thumb Code     0  startup_stm32f4xx.o(.text)
    CAN2_TX_IRQHandler                       0x08018c53   Thumb Code     0  startup_stm32f4xx.o(.text)
    CRYP_IRQHandler                          0x08018c53   Thumb Code     0  startup_stm32f4xx.o(.text)
    DCMI_IRQHandler                          0x08018c53   Thumb Code     0  startup_stm32f4xx.o(.text)
    DMA1_Stream0_IRQHandler                  0x08018c53   Thumb Code     0  startup_stm32f4xx.o(.text)
    DMA1_Stream1_IRQHandler                  0x08018c53   Thumb Code     0  startup_stm32f4xx.o(.text)
    DMA1_Stream2_IRQHandler                  0x08018c53   Thumb Code     0  startup_stm32f4xx.o(.text)
    DMA1_Stream3_IRQHandler                  0x08018c53   Thumb Code     0  startup_stm32f4xx.o(.text)
    DMA1_Stream4_IRQHandler                  0x08018c53   Thumb Code     0  startup_stm32f4xx.o(.text)
    DMA1_Stream5_IRQHandler                  0x08018c53   Thumb Code     0  startup_stm32f4xx.o(.text)
    DMA1_Stream6_IRQHandler                  0x08018c53   Thumb Code     0  startup_stm32f4xx.o(.text)
    DMA1_Stream7_IRQHandler                  0x08018c53   Thumb Code     0  startup_stm32f4xx.o(.text)
    DMA2_Stream0_IRQHandler                  0x08018c53   Thumb Code     0  startup_stm32f4xx.o(.text)
    DMA2_Stream1_IRQHandler                  0x08018c53   Thumb Code     0  startup_stm32f4xx.o(.text)
    DMA2_Stream2_IRQHandler                  0x08018c53   Thumb Code     0  startup_stm32f4xx.o(.text)
    DMA2_Stream3_IRQHandler                  0x08018c53   Thumb Code     0  startup_stm32f4xx.o(.text)
    DMA2_Stream4_IRQHandler                  0x08018c53   Thumb Code     0  startup_stm32f4xx.o(.text)
    DMA2_Stream5_IRQHandler                  0x08018c53   Thumb Code     0  startup_stm32f4xx.o(.text)
    DMA2_Stream6_IRQHandler                  0x08018c53   Thumb Code     0  startup_stm32f4xx.o(.text)
    DMA2_Stream7_IRQHandler                  0x08018c53   Thumb Code     0  startup_stm32f4xx.o(.text)
    ETH_IRQHandler                           0x08018c53   Thumb Code     0  startup_stm32f4xx.o(.text)
    ETH_WKUP_IRQHandler                      0x08018c53   Thumb Code     0  startup_stm32f4xx.o(.text)
    EXTI0_IRQHandler                         0x08018c53   Thumb Code     0  startup_stm32f4xx.o(.text)
    EXTI15_10_IRQHandler                     0x08018c53   Thumb Code     0  startup_stm32f4xx.o(.text)
    EXTI1_IRQHandler                         0x08018c53   Thumb Code     0  startup_stm32f4xx.o(.text)
    EXTI2_IRQHandler                         0x08018c53   Thumb Code     0  startup_stm32f4xx.o(.text)
    EXTI3_IRQHandler                         0x08018c53   Thumb Code     0  startup_stm32f4xx.o(.text)
    EXTI4_IRQHandler                         0x08018c53   Thumb Code     0  startup_stm32f4xx.o(.text)
    FLASH_IRQHandler                         0x08018c53   Thumb Code     0  startup_stm32f4xx.o(.text)
    FPU_IRQHandler                           0x08018c53   Thumb Code     0  startup_stm32f4xx.o(.text)
    FSMC_IRQHandler                          0x08018c53   Thumb Code     0  startup_stm32f4xx.o(.text)
    HASH_RNG_IRQHandler                      0x08018c53   Thumb Code     0  startup_stm32f4xx.o(.text)
    I2C1_ER_IRQHandler                       0x08018c53   Thumb Code     0  startup_stm32f4xx.o(.text)
    I2C1_EV_IRQHandler                       0x08018c53   Thumb Code     0  startup_stm32f4xx.o(.text)
    I2C2_ER_IRQHandler                       0x08018c53   Thumb Code     0  startup_stm32f4xx.o(.text)
    I2C2_EV_IRQHandler                       0x08018c53   Thumb Code     0  startup_stm32f4xx.o(.text)
    I2C3_ER_IRQHandler                       0x08018c53   Thumb Code     0  startup_stm32f4xx.o(.text)
    I2C3_EV_IRQHandler                       0x08018c53   Thumb Code     0  startup_stm32f4xx.o(.text)
    OTG_FS_WKUP_IRQHandler                   0x08018c53   Thumb Code     0  startup_stm32f4xx.o(.text)
    OTG_HS_EP1_IN_IRQHandler                 0x08018c53   Thumb Code     0  startup_stm32f4xx.o(.text)
    OTG_HS_EP1_OUT_IRQHandler                0x08018c53   Thumb Code     0  startup_stm32f4xx.o(.text)
    OTG_HS_IRQHandler                        0x08018c53   Thumb Code     0  startup_stm32f4xx.o(.text)
    OTG_HS_WKUP_IRQHandler                   0x08018c53   Thumb Code     0  startup_stm32f4xx.o(.text)
    PVD_IRQHandler                           0x08018c53   Thumb Code     0  startup_stm32f4xx.o(.text)
    RCC_IRQHandler                           0x08018c53   Thumb Code     0  startup_stm32f4xx.o(.text)
    RTC_Alarm_IRQHandler                     0x08018c53   Thumb Code     0  startup_stm32f4xx.o(.text)
    RTC_WKUP_IRQHandler                      0x08018c53   Thumb Code     0  startup_stm32f4xx.o(.text)
    SDIO_IRQHandler                          0x08018c53   Thumb Code     0  startup_stm32f4xx.o(.text)
    SPI1_IRQHandler                          0x08018c53   Thumb Code     0  startup_stm32f4xx.o(.text)
    SPI2_IRQHandler                          0x08018c53   Thumb Code     0  startup_stm32f4xx.o(.text)
    SPI3_IRQHandler                          0x08018c53   Thumb Code     0  startup_stm32f4xx.o(.text)
    TAMP_STAMP_IRQHandler                    0x08018c53   Thumb Code     0  startup_stm32f4xx.o(.text)
    TIM1_BRK_TIM9_IRQHandler                 0x08018c53   Thumb Code     0  startup_stm32f4xx.o(.text)
    TIM1_CC_IRQHandler                       0x08018c53   Thumb Code     0  startup_stm32f4xx.o(.text)
    TIM1_TRG_COM_TIM11_IRQHandler            0x08018c53   Thumb Code     0  startup_stm32f4xx.o(.text)
    TIM1_UP_TIM10_IRQHandler                 0x08018c53   Thumb Code     0  startup_stm32f4xx.o(.text)
    TIM2_IRQHandler                          0x08018c53   Thumb Code     0  startup_stm32f4xx.o(.text)
    TIM5_IRQHandler                          0x08018c53   Thumb Code     0  startup_stm32f4xx.o(.text)
    TIM6_DAC_IRQHandler                      0x08018c53   Thumb Code     0  startup_stm32f4xx.o(.text)
    TIM7_IRQHandler                          0x08018c53   Thumb Code     0  startup_stm32f4xx.o(.text)
    TIM8_BRK_TIM12_IRQHandler                0x08018c53   Thumb Code     0  startup_stm32f4xx.o(.text)
    TIM8_CC_IRQHandler                       0x08018c53   Thumb Code     0  startup_stm32f4xx.o(.text)
    TIM8_TRG_COM_TIM14_IRQHandler            0x08018c53   Thumb Code     0  startup_stm32f4xx.o(.text)
    TIM8_UP_TIM13_IRQHandler                 0x08018c53   Thumb Code     0  startup_stm32f4xx.o(.text)
    WWDG_IRQHandler                          0x08018c53   Thumb Code     0  startup_stm32f4xx.o(.text)
    usbd_init                                0x08018c5d   Thumb Code    22  usbd_core.o(.text)
    usbd_connect                             0x08018c73   Thumb Code    12  usbd_core.o(.text)
    usbd_reset_core                          0x08018c7f   Thumb Code    38  usbd_core.o(.text)
    usbd_configured                          0x08018ca5   Thumb Code    14  usbd_core.o(.text)
    USBD_SetupStage                          0x08018cb3   Thumb Code    12  usbd_core.o(.text)
    USBD_DataInStage                         0x08018cbf   Thumb Code    66  usbd_core.o(.text)
    USBD_DataOutStage                        0x08018d01   Thumb Code    34  usbd_core.o(.text)
    USBD_StatusInStage                       0x08018d23   Thumb Code    14  usbd_core.o(.text)
    USBD_StatusOutStage                      0x08018d31   Thumb Code    12  usbd_core.o(.text)
    USBD_ReqGetStatus                        0x08018d3d   Thumb Code   160  usbd_core.o(.text)
    USBD_ReqSetClrFeature                    0x08018ddd   Thumb Code   216  usbd_core.o(.text)
    USBD_ReqGetDescriptor                    0x08018eb5   Thumb Code   380  usbd_core.o(.text)
    USBD_ReqGetConfiguration                 0x08019031   Thumb Code   122  usbd_core.o(.text)
    USBD_ReqSetConfiguration                 0x080190ab   Thumb Code   432  usbd_core.o(.text)
    USBD_ReqGetInterface                     0x0801925b   Thumb Code    60  usbd_core.o(.text)
    USBD_ReqSetInterface                     0x08019297   Thumb Code   308  usbd_core.o(.text)
    USBD_EndPoint0                           0x080193cb   Thumb Code   680  usbd_core.o(.text)
    USBD_ReqGetDescriptor_HID                0x0801968d   Thumb Code   132  usbd_core_hid.o(.text)
    USBD_EndPoint0_Setup_HID_ReqToIF         0x08019711   Thumb Code   200  usbd_core_hid.o(.text)
    USBD_EndPoint0_Out_HID_ReqToIF           0x080197d9   Thumb Code    44  usbd_core_hid.o(.text)
    usbd_hid_init                            0x0801983d   Thumb Code     2  usbd_hid.o(.text)
    usbd_hid_get_protocol                    0x0801984d   Thumb Code     4  usbd_hid.o(.text)
    usbd_hid_set_protocol                    0x08019851   Thumb Code     2  usbd_hid.o(.text)
    USBD_HID_GetReport                       0x08019853   Thumb Code    54  usbd_hid.o(.text)
    USBD_HID_SetReport                       0x08019889   Thumb Code    58  usbd_hid.o(.text)
    USBD_HID_GetIdle                         0x080198c3   Thumb Code    16  usbd_hid.o(.text)
    USBD_HID_SetIdle                         0x080198d3   Thumb Code    48  usbd_hid.o(.text)
    USBD_HID_GetProtocol                     0x08019903   Thumb Code    14  usbd_hid.o(.text)
    USBD_HID_SetProtocol                     0x08019911   Thumb Code    14  usbd_hid.o(.text)
    USBD_HID_EP_INTIN_Event                  0x0801991f   Thumb Code   422  usbd_hid.o(.text)
    USBD_HID_EP_INTOUT_Event                 0x08019ac5   Thumb Code   148  usbd_hid.o(.text)
    USBD_HID_Configure_Event                 0x08019b59   Thumb Code    48  usbd_hid.o(.text)
    USBD_HID_EP_INT_Event                    0x08019b89   Thumb Code    30  usbd_hid.o(.text)
    USBD_HID_SOF_Event                       0x08019ba7   Thumb Code   460  usbd_hid.o(.text)
    usbd_hid_get_report_trigger              0x08019d73   Thumb Code   148  usbd_hid.o(.text)
    AccGyrStableCheck_Services               0x08019e41   Thumb Code   512  ano_imu_calibration.o(.text)
    GetGyrAvValue                            0x0801a041   Thumb Code   174  ano_imu_calibration.o(.text)
    GetAccAvValue                            0x0801a0ef   Thumb Code   174  ano_imu_calibration.o(.text)
    ImuSensitivityInit                       0x0801a1dd   Thumb Code   108  ano_imu_data.o(.text)
    ImuDataGet                               0x0801a249   Thumb Code    64  ano_imu_data.o(.text)
    ImuTemperatureGet                        0x0801a289   Thumb Code    10  ano_imu_data.o(.text)
    ImuDataCalcu                             0x0801a293   Thumb Code   282  ano_imu_data.o(.text)
    ImuServices_1ms_c                        0x0801a3c1   Thumb Code   116  ano_imu_task.o(.text)
    ImuServices_20ms_c                       0x0801a435   Thumb Code    18  ano_imu_task.o(.text)
    ultr_Init                                0x0801a465   Thumb Code    56  ultr.o(.text)
    TIM4_CH1_Cap_Init                        0x0801a49d   Thumb Code   172  ultr.o(.text)
    TIM4_IRQHandler                          0x0801a549   Thumb Code   194  ultr.o(.text)
    coo                                      0x0801a621   Thumb Code    68  task1.o(.text)
    search_A                                 0x0801a665   Thumb Code   592  task1.o(.text)
    __aeabi_ldivmod                          0x0801a90d   Thumb Code    98  ldiv.o(.text)
    __aeabi_memcpy                           0x0801a96f   Thumb Code    36  memcpya.o(.text)
    __aeabi_memcpy4                          0x0801a96f   Thumb Code     0  memcpya.o(.text)
    __aeabi_memcpy8                          0x0801a96f   Thumb Code     0  memcpya.o(.text)
    __aeabi_dadd                             0x0801a993   Thumb Code   322  dadd.o(.text)
    __aeabi_dsub                             0x0801aad5   Thumb Code     6  dadd.o(.text)
    __aeabi_drsub                            0x0801aadb   Thumb Code     6  dadd.o(.text)
    __aeabi_dmul                             0x0801aae1   Thumb Code   228  dmul.o(.text)
    __aeabi_l2f                              0x0801abc5   Thumb Code    44  ffltl.o(.text)
    __aeabi_i2d                              0x0801abf1   Thumb Code    34  dflti.o(.text)
    __aeabi_d2iz                             0x0801ac13   Thumb Code    62  dfixi.o(.text)
    __aeabi_f2d                              0x0801ac51   Thumb Code    38  f2d.o(.text)
    __aeabi_cdcmpeq                          0x0801ac79   Thumb Code     0  cdcmple.o(.text)
    __aeabi_cdcmple                          0x0801ac79   Thumb Code    48  cdcmple.o(.text)
    __aeabi_cdrcmple                         0x0801aca9   Thumb Code    48  cdrcmple.o(.text)
    __aeabi_d2f                              0x0801acd9   Thumb Code    56  d2f.o(.text)
    __aeabi_uldivmod                         0x0801ad11   Thumb Code    98  uldiv.o(.text)
    __aeabi_llsl                             0x0801ad73   Thumb Code    30  llshl.o(.text)
    _ll_shift_l                              0x0801ad73   Thumb Code     0  llshl.o(.text)
    __aeabi_llsr                             0x0801ad91   Thumb Code    32  llushr.o(.text)
    _ll_ushift_r                             0x0801ad91   Thumb Code     0  llushr.o(.text)
    __aeabi_lasr                             0x0801adb1   Thumb Code    36  llsshr.o(.text)
    _ll_sshift_r                             0x0801adb1   Thumb Code     0  llsshr.o(.text)
    __I$use$fp                               0x0801add5   Thumb Code     0  iusefp.o(.text)
    _float_round                             0x0801add5   Thumb Code    18  fepilogue.o(.text)
    _float_epilogue                          0x0801ade7   Thumb Code    92  fepilogue.o(.text)
    _double_round                            0x0801ae43   Thumb Code    30  depilogue.o(.text)
    _double_epilogue                         0x0801ae61   Thumb Code   156  depilogue.o(.text)
    __scatterload                            0x0801aefd   Thumb Code    28  init.o(.text)
    __scatterload_rt2                        0x0801aefd   Thumb Code     0  init.o(.text)
    __decompress                             0x0801af21   Thumb Code     0  __dczerorl2.o(.text)
    __decompress1                            0x0801af21   Thumb Code    86  __dczerorl2.o(.text)
    __scatterload_copy                       0x0801af77   Thumb Code    14  handlers.o(i.__scatterload_copy)
    __scatterload_null                       0x0801af85   Thumb Code     2  handlers.o(i.__scatterload_null)
    __scatterload_zeroinit                   0x0801af87   Thumb Code    14  handlers.o(i.__scatterload_zeroinit)
    usbd_power                               0x0801af94   Data           1  usb_config.o(.constdata)
    usbd_hs_enable                           0x0801af95   Data           1  usb_config.o(.constdata)
    usbd_if_num                              0x0801af96   Data           2  usb_config.o(.constdata)
    usbd_ep_num                              0x0801af98   Data           1  usb_config.o(.constdata)
    usbd_max_packet0                         0x0801af99   Data           1  usb_config.o(.constdata)
    usbd_hid_if_num                          0x0801af9a   Data           1  usb_config.o(.constdata)
    usbd_hid_ep_intin                        0x0801af9b   Data           1  usb_config.o(.constdata)
    usbd_hid_ep_intout                       0x0801af9c   Data           1  usb_config.o(.constdata)
    usbd_hid_interval                        0x0801af9e   Data           4  usb_config.o(.constdata)
    usbd_hid_maxpacketsize                   0x0801afa2   Data           4  usb_config.o(.constdata)
    usbd_hid_inreport_num                    0x0801afa6   Data           1  usb_config.o(.constdata)
    usbd_hid_outreport_num                   0x0801afa7   Data           1  usb_config.o(.constdata)
    usbd_hid_inreport_max_sz                 0x0801afa8   Data           2  usb_config.o(.constdata)
    usbd_hid_outreport_max_sz                0x0801afaa   Data           2  usb_config.o(.constdata)
    usbd_hid_featreport_max_sz               0x0801afac   Data           2  usb_config.o(.constdata)
    USBD_P_Power_Event                       0x0801afb0   Data           4  usb_config.o(.constdata)
    USBD_P_Reset_Event                       0x0801afb4   Data           4  usb_config.o(.constdata)
    USBD_P_Suspend_Event                     0x0801afb8   Data           4  usb_config.o(.constdata)
    USBD_P_Resume_Event                      0x0801afbc   Data           4  usb_config.o(.constdata)
    USBD_P_WakeUp_Event                      0x0801afc0   Data           4  usb_config.o(.constdata)
    USBD_P_SOF_Event                         0x0801afc4   Data           4  usb_config.o(.constdata)
    USBD_P_Error_Event                       0x0801afc8   Data           4  usb_config.o(.constdata)
    USBD_P_EP                                0x0801afcc   Data          64  usb_config.o(.constdata)
    USBD_P_Configure_Event                   0x0801b00c   Data           4  usb_config.o(.constdata)
    USBD_P_Interface_Event                   0x0801b010   Data           4  usb_config.o(.constdata)
    USBD_P_Feature_Event                     0x0801b014   Data           4  usb_config.o(.constdata)
    __rtx                                    0x0801b018   Data           4  usb_config.o(.constdata)
    USBD_HID_ReportDescriptor                0x0801b01c   Data          33  usb_config.o(.constdata)
    USBD_HID_ReportDescriptorSize            0x0801b03e   Data           2  usb_config.o(.constdata)
    USBD_HID_DescriptorOffset                0x0801b040   Data           2  usb_config.o(.constdata)
    USBD_DeviceDescriptor                    0x0801b042   Data          18  usb_config.o(.constdata)
    USBD_DeviceQualifier                     0x0801b054   Data           1  usb_config.o(.constdata)
    USBD_DeviceQualifier_HS                  0x0801b055   Data           1  usb_config.o(.constdata)
    USBD_ConfigDescriptor                    0x0801b056   Data          42  usb_config.o(.constdata)
    USBD_ConfigDescriptor_HS                 0x0801b080   Data           1  usb_config.o(.constdata)
    USBD_OtherSpeedConfigDescriptor          0x0801b081   Data           1  usb_config.o(.constdata)
    USBD_OtherSpeedConfigDescriptor_HS       0x0801b082   Data           1  usb_config.o(.constdata)
    USBD_StringDescriptor                    0x0801b084   Data         132  usb_config.o(.constdata)
    _cs_idlist                               0x0801b108   Data          24  ano_dt.o(.constdata)
    fast_atan_table                          0x0801b120   Data        1028  ano_math.o(.constdata)
    gps_petrol_out_config                    0x0801b524   Data          28  drv_gps.o(.constdata)
    gps_pvt_out_config                       0x0801b540   Data          90  drv_gps.o(.constdata)
    gps_rate_out_config                      0x0801b59a   Data          16  drv_gps.o(.constdata)
    Enter_Send                               0x0801b5aa   Data           9  drv_gps.o(.constdata)
    Region$$Table$$Base                      0x0801b7d8   Number         0  anon$$obj.o(Region$$Table)
    Region$$Table$$Limit                     0x0801b7f8   Number         0  anon$$obj.o(Region$$Table)
    HID_SEND_TIMEOUT                         0x20000000   Data           1  ano_usb.o(.data)
    hid_datatemp_begin                       0x20000001   Data           1  ano_usb.o(.data)
    hid_datatemp_end                         0x20000002   Data           1  ano_usb.o(.data)
    USBD_AltSetting                          0x20000004   Data           1  usb_config.o(.data)
    USBD_HID_PollingCnt                      0x20000006   Data           2  usb_config.o(.data)
    USBD_HID_IdleCnt                         0x20000008   Data           1  usb_config.o(.data)
    USBD_HID_IdleReload                      0x20000009   Data           1  usb_config.o(.data)
    USBD_HID_IdleSet                         0x2000000a   Data           1  usb_config.o(.data)
    USBD_HID_FeatReport                      0x2000000b   Data           2  usb_config.o(.data)
    of_init_type                             0x20000064   Data           1  bsp_init.o(.data)
    usart_flag                               0x20000066   Data           2  ano_dt.o(.data)
    unlock_f                                 0x20000068   Data           2  ano_rc.o(.data)
    stick_fun_0                              0x2000006a   Data           1  ano_rc.o(.data)
    unlock_time                              0x2000006c   Data           2  ano_rc.o(.data)
    cali_gyro                                0x2000006e   Data           2  ano_rc.o(.data)
    cali_acc                                 0x20000070   Data           2  ano_rc.o(.data)
    cali_surface                             0x20000072   Data           2  ano_rc.o(.data)
    cali_mag                                 0x20000074   Data           4  ano_rc.o(.data)
    stick_fun_1                              0x20000078   Data           1  ano_rc.o(.data)
    stick_fun_2                              0x20000079   Data           1  ano_rc.o(.data)
    stick_fun_3                              0x2000007a   Data           1  ano_rc.o(.data)
    stick_fun_4                              0x2000007b   Data           1  ano_rc.o(.data)
    stick_fun_5_magcali                      0x2000007c   Data           1  ano_rc.o(.data)
    opmv_ct_sta                              0x2000008d   Data           3  ano_opmv_ctrl.o(.data)
    of_buf_update_flag                       0x200000c0   Data           1  ano_of_decofusion.o(.data)
    of_rot_d_degs                            0x200000c4   Data           8  ano_of_decofusion.o(.data)
    of_fus_err                               0x200000cc   Data           8  ano_of_decofusion.o(.data)
    of_fus_err_i                             0x200000d4   Data           8  ano_of_decofusion.o(.data)
    imu_data                                 0x200000fc   Data         232  ano_imu.o(.data)
    imu_state                                0x20000218   Data          24  ano_imu.o(.data)
    artificial_yaw                           0x20000244   Data           4  ano_imu.o(.data)
    ref_height_old                           0x20000254   Data           4  ano_motioncal.o(.data)
    ref_speed_old                            0x20000258   Data           4  ano_motioncal.o(.data)
    wcz_ref_height                           0x2000025c   Data           4  ano_motioncal.o(.data)
    wcz_ref_speed                            0x20000260   Data           4  ano_motioncal.o(.data)
    wcz_ref_acc                              0x20000264   Data           4  ano_motioncal.o(.data)
    search_flag                              0x20000290   Data           1  ano_flightctrl.o(.data)
    search_pole_flag                         0x20000292   Data           2  ano_flightctrl.o(.data)
    turnstile_flag                           0x20000294   Data           2  ano_flightctrl.o(.data)
    pole_flag                                0x20000296   Data           2  ano_flightctrl.o(.data)
    one_key_taof_start                       0x20000298   Data           2  ano_flightctrl.o(.data)
    flying_cnt                               0x2000029a   Data           2  ano_flightctrl.o(.data)
    landing_cnt                              0x2000029c   Data           2  ano_flightctrl.o(.data)
    stop_baro_hpf                            0x200002a0   Data           4  ano_flightctrl.o(.data)
    OF_pitspeed                              0x200002a8   Data           4  ano_flightctrl.o(.data)
    OF_rolspeed                              0x200002ac   Data           4  ano_flightctrl.o(.data)
    jsdata                                   0x200002ba   Data           6  ano_flightctrl.o(.data)
    speed_mode_old                           0x200002c0   Data           1  ano_flightctrl.o(.data)
    flight_mode_old                          0x200002c1   Data           1  ano_flightctrl.o(.data)
    usrat_flag                               0x200002c4   Data           4  ano_flightctrl.o(.data)
    temp                                     0x200002c8   Data           8  ano_flightctrl.o(.data)
    Distance                                 0x200002d0   Data           4  ano_flightctrl.o(.data)
    OF_flag                                  0x200002d4   Data           2  ano_flightctrl.o(.data)
    turnstile_flag_left                      0x200002d6   Data           2  ano_flightctrl.o(.data)
    turnstile_flag_right                     0x200002d8   Data           2  ano_flightctrl.o(.data)
    bar_flag                                 0x200002da   Data           2  ano_flightctrl.o(.data)
    time_flag1                               0x200002ec   Data           2  ano_locctrl.o(.data)
    vel_fb_d_lpf                             0x200002f8   Data           8  ano_locctrl.o(.data)
    vel_fb_h                                 0x20000300   Data           8  ano_locctrl.o(.data)
    vel_fb_w                                 0x20000308   Data           8  ano_locctrl.o(.data)
    vel_fb_fix_w                             0x20000310   Data           8  ano_locctrl.o(.data)
    mag                                      0x20000330   Data           8  ano_magprocess.o(.data)
    motor                                    0x20000344   Data           8  ano_motorctrl.o(.data)
    motor_step                               0x2000034c   Data           8  ano_motorctrl.o(.data)
    IDLING                                   0x20000356   Data           2  ano_motorctrl.o(.data)
    Plane_Votage                             0x20000358   Data           4  ano_power.o(.data)
    test_time_cnt                            0x20000364   Data           2  ano_flightdatacal.o(.data)
    baro_height                              0x20000370   Data           4  ano_flightdatacal.o(.data)
    baro_h_offset                            0x20000374   Data           4  ano_flightdatacal.o(.data)
    ref_height_get_1                         0x20000378   Data           4  ano_flightdatacal.o(.data)
    ref_height_get_2                         0x2000037c   Data           4  ano_flightdatacal.o(.data)
    ref_height_used                          0x20000380   Data           4  ano_flightdatacal.o(.data)
    baro2tof_offset                          0x20000384   Data           4  ano_flightdatacal.o(.data)
    tof2baro_offset                          0x20000388   Data           4  ano_flightdatacal.o(.data)
    baro_fix1                                0x2000038c   Data           4  ano_flightdatacal.o(.data)
    baro_fix2                                0x20000390   Data           4  ano_flightdatacal.o(.data)
    baro_fix                                 0x20000394   Data           4  ano_flightdatacal.o(.data)
    wcz_acc_use                              0x2000039c   Data           4  ano_flightdatacal.o(.data)
    ref_tof_height                           0x200003a0   Data           2  ano_flightdatacal.o(.data)
    led_accuracy                             0x200003a8   Data           2  drv_led.o(.data)
    LED_Brightness                           0x200003ac   Data          16  drv_led.o(.data)
    AdcValue                                 0x200003d0   Data           2  drv_adc.o(.data)
    para_sta                                 0x200003d2   Data           4  ano_parameter.o(.data)
    sysTickUptime                            0x200003d8   Data           4  drv_time.o(.data)
    systime_ms                               0x200003dc   Data           4  drv_time.o(.data)
    USART_RX_STA                             0x200003e0   Data           2  drv_usart.o(.data)
    ac                                       0x200003e4   Data           4  drv_usart.o(.data)
    Tx1Counter                               0x200003e8   Data           1  drv_usart.o(.data)
    count1                                   0x200003e9   Data           1  drv_usart.o(.data)
    cc                                       0x200003ea   Data           1  drv_usart.o(.data)
    bp                                       0x200003eb   Data           1  drv_usart.o(.data)
    T265_x                                   0x200003ec   Data           2  drv_usart.o(.data)
    T265_y                                   0x200003ee   Data           2  drv_usart.o(.data)
    T265_z                                   0x200003f0   Data           2  drv_usart.o(.data)
    T265_lx                                  0x200003f2   Data           2  drv_usart.o(.data)
    T265_ly                                  0x200003f4   Data           2  drv_usart.o(.data)
    T265_lz                                  0x200003f6   Data           2  drv_usart.o(.data)
    V_x                                      0x200003f8   Data           4  drv_usart.o(.data)
    V_y                                      0x200003fc   Data           4  drv_usart.o(.data)
    V_z                                      0x20000400   Data           4  drv_usart.o(.data)
    L_x                                      0x20000404   Data           4  drv_usart.o(.data)
    L_y                                      0x20000408   Data           4  drv_usart.o(.data)
    L_z                                      0x2000040c   Data           4  drv_usart.o(.data)
    Rcount                                   0x20000410   Data           1  drv_usart.o(.data)
    TxCounter                                0x20000411   Data           1  drv_usart.o(.data)
    count                                    0x20000412   Data           1  drv_usart.o(.data)
    Tx3Counter                               0x20000413   Data           1  drv_usart.o(.data)
    count3                                   0x20000414   Data           1  drv_usart.o(.data)
    Tx4Counter                               0x20000415   Data           1  drv_usart.o(.data)
    count4                                   0x20000416   Data           1  drv_usart.o(.data)
    Tx5Counter                               0x20000417   Data           1  drv_usart.o(.data)
    count5                                   0x20000418   Data           1  drv_usart.o(.data)
    alt_3                                    0x20000424   Data           4  drv_spl06.o(.data)
    baro_start                               0x20000428   Data           1  drv_spl06.o(.data)
    OutMaxPacketSize                         0x2000042c   Data          16  usbd_stm32f4xx_fs.o(.data)
    InPacketDataPtr                          0x2000043c   Data          16  usbd_stm32f4xx_fs.o(.data)
    InPacketDataReady                        0x2000044c   Data           4  usbd_stm32f4xx_fs.o(.data)
    SyncWriteEP                              0x20000450   Data           4  usbd_stm32f4xx_fs.o(.data)
    IsoOutTokenRead                          0x20000454   Data           4  usbd_stm32f4xx_fs.o(.data)
    len                                      0x2000045c   Data           2  drv_gps.o(.data)
    wcx_acc_use                              0x20000460   Data           4  drv_gps.o(.data)
    wcy_acc_use                              0x20000464   Data           4  drv_gps.o(.data)
    GPS_get_cnt                              0x20000468   Data           1  drv_gps.o(.data)
    temperature_err                          0x20000478   Data           4  drv_heating.o(.data)
    temperature_err_i                        0x2000047c   Data           4  drv_heating.o(.data)
    temperature_diff                         0x20000480   Data           4  drv_heating.o(.data)
    temperature_ctrl_val                     0x20000484   Data           4  drv_heating.o(.data)
    LASER_LINKOK                             0x2000048c   Data           1  drv_laser.o(.data)
    Laser_height_cm                          0x2000048e   Data           2  drv_laser.o(.data)
    offline_check_time                       0x20000492   Data           2  drv_openmv.o(.data)
    of_init_cnt                              0x20000496   Data           1  drv_up_flow.o(.data)
    of_buf_update_cnt                        0x20000497   Data           1  drv_up_flow.o(.data)
    SystemCoreClock                          0x200004c0   Data           4  system_stm32f4xx.o(.data)
    AHBPrescTable                            0x200004c4   Data          16  system_stm32f4xx.o(.data)
    USBD_DeviceStatus                        0x200004d4   Data           2  usbd_core.o(.data)
    USBD_DeviceAddress                       0x200004d6   Data           1  usbd_core.o(.data)
    USBD_Configuration                       0x200004d7   Data           1  usbd_core.o(.data)
    USBD_EndPointMask                        0x200004d8   Data           4  usbd_core.o(.data)
    USBD_EndPointHalt                        0x200004dc   Data           4  usbd_core.o(.data)
    USBD_EndPointStall                       0x200004e0   Data           4  usbd_core.o(.data)
    USBD_NumInterfaces                       0x200004e4   Data           1  usbd_core.o(.data)
    USBD_HighSpeed                           0x200004e5   Data           1  usbd_core.o(.data)
    USBD_ZLP                                 0x200004e6   Data           1  usbd_core.o(.data)
    USBD_EP0Data                             0x200004e8   Data           8  usbd_core.o(.data)
    USBD_SetupPacket                         0x200004f0   Data           8  usbd_core.o(.data)
    USBD_HID_Protocol                        0x200004f8   Data           1  usbd_hid.o(.data)
    DataOutAsyncReq                          0x200004fc   Data           4  usbd_hid.o(.data)
    DataOutUpdateReqMask                     0x20000500   Data           4  usbd_hid.o(.data)
    ptrDataOut                               0x20000504   Data           4  usbd_hid.o(.data)
    DataOutToSendLen                         0x20000508   Data           2  usbd_hid.o(.data)
    DataOutSentLen                           0x2000050a   Data           2  usbd_hid.o(.data)
    DataOutEndWithShortPacket                0x2000050c   Data           4  usbd_hid.o(.data)
    ptrDataIn                                0x20000510   Data           4  usbd_hid.o(.data)
    DataInReceLen                            0x20000514   Data           2  usbd_hid.o(.data)
    ptrDataFeat                              0x20000518   Data           4  usbd_hid.o(.data)
    DataFeatReceLen                          0x2000051c   Data           2  usbd_hid.o(.data)
    st_imu_cali                              0x20000520   Data           4  ano_imu_calibration.o(.data)
    TIM4CH1_CAPTURE_STA                      0x20000538   Data           1  ultr.o(.data)
    TIM4CH1_CAPTURE_VAL                      0x2000053c   Data           4  ultr.o(.data)
    usart_flag1                              0x20000540   Data           2  task1.o(.data)
    ass                                      0x20000542   Data           2  task1.o(.data)
    time                                     0x20000544   Data           4  task1.o(.data)
    time1                                    0x20000548   Data           4  task1.o(.data)
    cut_flag                                 0x2000054c   Data           2  task1.o(.data)
    cut1_flag                                0x2000054e   Data           2  task1.o(.data)
    cut2_flag                                0x20000550   Data           2  task1.o(.data)
    t1                                       0x20000554   Data           4  task1.o(.data)
    t2                                       0x20000558   Data           4  task1.o(.data)
    x_new                                    0x2000055c   Data           4  task1.o(.data)
    y_new                                    0x20000560   Data           4  task1.o(.data)
    x_old                                    0x20000564   Data           4  task1.o(.data)
    y_old                                    0x20000568   Data           4  task1.o(.data)
    change_flag                              0x2000056c   Data           2  task1.o(.data)
    change_flag1                             0x2000056e   Data           2  task1.o(.data)
    start_flag                               0x20000570   Data           2  task1.o(.data)
    exp_p                                    0x20000572   Data           2  task1.o(.data)
    exp_l                                    0x20000574   Data           2  task1.o(.data)
    A_pitch                                  0x20000576   Data           2  task1.o(.data)
    A_roll                                   0x20000578   Data           2  task1.o(.data)
    hid_datatemp                             0x20000580   Data         256  ano_usb.o(.bss)
    hid_data2send                            0x20000680   Data          64  ano_usb.o(.bss)
    USBD_EP0Buf                              0x200006c0   Data          64  usb_config.o(.bss)
    USBD_HID_InReport                        0x20000700   Data          65  usb_config.o(.bss)
    USBD_HID_OutReport                       0x20000741   Data          65  usb_config.o(.bss)
    stk_usb_msc_task                         0x20000788   Data         600  usb_config.o(.bss)
    test_dT_1000hz                           0x200009e0   Data          12  ano_scheduler.o(.bss)
    test_rT                                  0x200009ec   Data          24  ano_scheduler.o(.bss)
    dt                                       0x20000a04   Data         432  ano_dt.o(.bss)
    CycleSendData                            0x20000bb4   Data          64  ano_dt.o(.bss)
    OtherSendData                            0x20000bf4   Data         335  ano_dt.o(.bss)
    otherDataTmp                             0x20000d43   Data          64  ano_dt.o(.bss)
    CH_N                                     0x20000e4c   Data          16  ano_rc.o(.bss)
    ano_of                                   0x20000e5c   Data          60  ano_of.o(.bss)
    program_ctrl                             0x20000ed8   Data          84  ano_flyctrl.o(.bss)
    uwb_data                                 0x20000f2c   Data          60  ano_uwb.o(.bss)
    pc_user                                  0x20001168   Data          32  ano_programctrl_user.o(.bss)
    ano_opmv_cbt_ctrl                        0x20001188   Data          52  ano_opmv_cbtracking_ctrl.o(.bss)
    ano_opmv_lt_ctrl                         0x200011cc   Data          32  ano_opmv_linetracking_ctrl.o(.bss)
    of_data                                  0x200011ec   Data          10  ano_of_decofusion.o(.bss)
    of_rdf                                   0x200011f8   Data          72  ano_of_decofusion.o(.bss)
    switchs                                  0x20001240   Data           9  ano_fcdata.o(.bss)
    flag                                     0x20001249   Data          28  ano_fcdata.o(.bss)
    fc_stv                                   0x20001268   Data          16  ano_fcdata.o(.bss)
    sens_hd_check                            0x20001278   Data           9  ano_fcdata.o(.bss)
    att_matrix                               0x20001284   Data          36  ano_imu.o(.bss)
    imu_test                                 0x200012cc   Data          12  ano_imu.o(.bss)
    wcz_acc_fus                              0x200012d8   Data          28  ano_motioncal.o(.bss)
    wcz_spe_fus                              0x200012f4   Data          24  ano_motioncal.o(.bss)
    wcz_hei_fus                              0x2000130c   Data          24  ano_motioncal.o(.bss)
    center_pos                               0x20001324   Data          60  ano_sensor_basic.o(.bss)
    sensor                                   0x20001360   Data          60  ano_sensor_basic.o(.bss)
    sensor_val                               0x2000139c   Data          24  ano_sensor_basic.o(.bss)
    alt_arg_2                                0x2000142c   Data          24  ano_altctrl.o(.bss)
    alt_val_2                                0x20001444   Data          40  ano_altctrl.o(.bss)
    alt_arg_1                                0x2000146c   Data          24  ano_altctrl.o(.bss)
    alt_val_1                                0x20001484   Data          40  ano_altctrl.o(.bss)
    arg_2                                    0x200014ac   Data          72  ano_attctrl.o(.bss)
    arg_1                                    0x200014f4   Data          72  ano_attctrl.o(.bss)
    val_2                                    0x2000153c   Data         120  ano_attctrl.o(.bss)
    val_1                                    0x200015b4   Data         120  ano_attctrl.o(.bss)
    att_2l_ct                                0x2000162c   Data          36  ano_attctrl.o(.bss)
    att_1l_ct                                0x20001650   Data          28  ano_attctrl.o(.bss)
    rolling_flag                             0x2000167c   Data          24  ano_attctrl.o(.bss)
    fs                                       0x20001694   Data          52  ano_flightctrl.o(.bss)
    loc                                      0x200016c8   Data          24  ano_locctrl.o(.bss)
    loc_arg_1                                0x200016e0   Data          48  ano_locctrl.o(.bss)
    loc_val_1                                0x20001710   Data          80  ano_locctrl.o(.bss)
    loc_arg_1_fix                            0x20001760   Data          48  ano_locctrl.o(.bss)
    loc_val_1_fix                            0x20001790   Data          80  ano_locctrl.o(.bss)
    loc_ctrl_1                               0x200017e0   Data          36  ano_locctrl.o(.bss)
    loc_ctrl_2                               0x20001804   Data          36  ano_locctrl.o(.bss)
    mc                                       0x20001828   Data          16  ano_motorctrl.o(.bss)
    LED_STA                                  0x20001838   Data          15  drv_led.o(.bss)
    Ano_Parame                               0x20001848   Data        4096  ano_parameter.o(.bss)
    Send_Data1                               0x20002848   Data          29  drv_usart.o(.bss)
    Recive_Data1                             0x20002865   Data          29  drv_usart.o(.bss)
    USART_RX_BUF                             0x20002882   Data         200  drv_usart.o(.bss)
    Tx1Buffer                                0x2000294a   Data         256  drv_usart.o(.bss)
    TxBuffer                                 0x20002a4a   Data         256  drv_usart.o(.bss)
    Rx_Buf                                   0x20002b4a   Data         256  drv_usart.o(.bss)
    Tx3Buffer                                0x20002c4a   Data         256  drv_usart.o(.bss)
    Tx4Buffer                                0x20002d4a   Data         256  drv_usart.o(.bss)
    Tx5Buffer                                0x20002e4a   Data         256  drv_usart.o(.bss)
    spl_data                                 0x20002f78   Data          20  drv_spl06.o(.bss)
    HID_IntInPacketData                      0x20002f98   Data          64  usbd_stm32f4xx_fs.o(.bss)
    IsoOutPacketDataPtr                      0x20002fd8   Data          16  usbd_stm32f4xx_fs.o(.bss)
    InPacketDataCnt                          0x20002fe8   Data          16  usbd_stm32f4xx_fs.o(.bss)
    IsoOutPacketDataCnt                      0x20002ff8   Data          16  usbd_stm32f4xx_fs.o(.bss)
    Gps_information                          0x20003008   Data         100  drv_gps.o(.bss)
    GPS_data_buff                            0x2000306c   Data         100  drv_gps.o(.bss)
    ext_sens                                 0x200030d0   Data          23  drv_gps.o(.bss)
    temperature_fb                           0x200030e8   Data          12  drv_heating.o(.bss)
    openmv_buf                               0x200030f4   Data          20  drv_openmv.o(.bss)
    opmv                                     0x20003108   Data          44  drv_openmv.o(.bss)
    datasend                                 0x20003134   Data         100  drv_openmv.o(.bss)
    OF_DATA                                  0x20003198   Data          14  drv_up_flow.o(.bss)
    st_bmi_data                              0x200031b4   Data          14  drv_bmi088.o(.bss)
    rc_in                                    0x200031c2   Data          82  drv_bsp.o(.bss)
    st_imuData                               0x20003278   Data         152  ano_imu_data.o(.bss)
    test_st                                  0x20003310   Data          16  ano_imu_data.o(.bss)
    TIM4_ICInitStructure                     0x20003320   Data          10  ultr.o(.bss)
    T265                                     0x2000332c   Data          24  task1.o(.bss)
    search                                   0x20003344   Data          24  task1.o(.bss)
    array_x                                  0x2000335c   Data         120  task1.o(.bss)
    array_y                                  0x200033d4   Data         120  task1.o(.bss)
    __initial_sp                             0x20003c50   Data           0  startup_stm32f4xx.o(STACK)



==============================================================================

Memory Map of the image

  Image Entry point : 0x08000189

  Load Region LR_IROM1 (Base: 0x08000000, Size: 0x0001bd78, Max: 0x00100000, ABSOLUTE, COMPRESSED[0x0001b874])

    Execution Region ER_IROM1 (Exec base: 0x08000000, Load base: 0x08000000, Size: 0x0001b7f8, Max: 0x00100000, ABSOLUTE)

    Exec Addr    Load Addr    Size         Type   Attr      Idx    E Section Name        Object

    0x08000000   0x08000000   0x00000188   Data   RO         1904    RESET               startup_stm32f4xx.o
    0x08000188   0x08000188   0x00000000   Code   RO         2184  * .ARM.Collect$$$$00000000  mc_w.l(entry.o)
    0x08000188   0x08000188   0x00000004   Code   RO         2522    .ARM.Collect$$$$00000001  mc_w.l(entry2.o)
    0x0800018c   0x0800018c   0x00000004   Code   RO         2525    .ARM.Collect$$$$00000004  mc_w.l(entry5.o)
    0x08000190   0x08000190   0x00000000   Code   RO         2527    .ARM.Collect$$$$00000008  mc_w.l(entry7b.o)
    0x08000190   0x08000190   0x00000000   Code   RO         2529    .ARM.Collect$$$$0000000A  mc_w.l(entry8b.o)
    0x08000190   0x08000190   0x00000008   Code   RO         2530    .ARM.Collect$$$$0000000B  mc_w.l(entry9a.o)
    0x08000198   0x08000198   0x00000000   Code   RO         2532    .ARM.Collect$$$$0000000D  mc_w.l(entry10a.o)
    0x08000198   0x08000198   0x00000000   Code   RO         2534    .ARM.Collect$$$$0000000F  mc_w.l(entry11a.o)
    0x08000198   0x08000198   0x00000004   Code   RO         2523    .ARM.Collect$$$$00002712  mc_w.l(entry2.o)
    0x0800019c   0x0800019c   0x00000054   Code   RO            2    .text               stm32f4xx_it.o
    0x080001f0   0x080001f0   0x0000024c   Code   RO          154    .text               ano_usb.o
    0x0800043c   0x0800043c   0x00000052   Code   RO          231    .text               usb_config.o
    0x0800048e   0x0800048e   0x00000002   PAD
    0x08000490   0x08000490   0x0000001c   Code   RO          255    .text               main.o
    0x080004ac   0x080004ac   0x0000020c   Code   RO          275    .text               ano_scheduler.o
    0x080006b8   0x080006b8   0x00000120   Code   RO          399    .text               bsp_init.o
    0x080007d8   0x080007d8   0x000011c0   Code   RO          457    .text               ano_dt.o
    0x08001998   0x08001998   0x00000574   Code   RO          487    .text               ano_rc.o
    0x08001f0c   0x08001f0c   0x0000034c   Code   RO          511    .text               ano_of.o
    0x08002258   0x08002258   0x0000098c   Code   RO          534    .text               ano_flyctrl.o
    0x08002be4   0x08002be4   0x000002dc   Code   RO          561    .text               ano_uwb.o
    0x08002ec0   0x08002ec0   0x000000d0   Code   RO          584    .text               ano_programctrl_user.o
    0x08002f90   0x08002f90   0x000000f4   Code   RO          606    .text               ano_opmv_ctrl.o
    0x08003084   0x08003084   0x00000478   Code   RO          632    .text               ano_opmv_cbtracking_ctrl.o
    0x080034fc   0x080034fc   0x0000056c   Code   RO          655    .text               ano_opmv_linetracking_ctrl.o
    0x08003a68   0x08003a68   0x000005c4   Code   RO          678    .text               ano_of_decofusion.o
    0x0800402c   0x0800402c   0x00000028   Code   RO          705    .text               ano_fcdata.o
    0x08004054   0x08004054   0x00000844   Code   RO          731    .text               ano_filter.o
    0x08004898   0x08004898   0x00000ba8   Code   RO          758    .text               ano_imu.o
    0x08005440   0x08005440   0x000008d4   Code   RO          801    .text               ano_math.o
    0x08005d14   0x08005d14   0x000001fc   Code   RO          820    .text               ano_motioncal.o
    0x08005f10   0x08005f10   0x00000120   Code   RO          867    .text               ano_pid.o
    0x08006030   0x08006030   0x00000214   Code   RO          886    .text               ano_sensor_basic.o
    0x08006244   0x08006244   0x000005d4   Code   RO          908    .text               ano_altctrl.o
    0x08006818   0x08006818   0x00000a54   Code   RO          951    .text               ano_attctrl.o
    0x0800726c   0x0800726c   0x00000eac   Code   RO          982    .text               ano_flightctrl.o
    0x08008118   0x08008118   0x00000de0   Code   RO         1027    .text               ano_locctrl.o
    0x08008ef8   0x08008ef8   0x000004b0   Code   RO         1051    .text               ano_magprocess.o
    0x080093a8   0x080093a8   0x000001f4   Code   RO         1077    .text               ano_motorctrl.o
    0x0800959c   0x0800959c   0x0000021c   Code   RO         1108    .text               ano_power.o
    0x080097b8   0x080097b8   0x00000368   Code   RO         1130    .text               ano_flightdatacal.o
    0x08009b20   0x08009b20   0x00000654   Code   RO         1154    .text               drv_led.o
    0x0800a174   0x0800a174   0x00000124   Code   RO         1185    .text               drv_adc.o
    0x0800a298   0x0800a298   0x00001488   Code   RO         1207    .text               ano_parameter.o
    0x0800b720   0x0800b720   0x00000130   Code   RO         1230    .text               drv_spi.o
    0x0800b850   0x0800b850   0x0000031c   Code   RO         1249    .text               drv_pwm_out.o
    0x0800bb6c   0x0800bb6c   0x000001b8   Code   RO         1268    .text               drv_time.o
    0x0800bd24   0x0800bd24   0x00000938   Code   RO         1298    .text               drv_usart.o
    0x0800c65c   0x0800c65c   0x00000104   Code   RO         1334    .text               drv_ak8975.o
    0x0800c760   0x0800c760   0x00000700   Code   RO         1380    .text               drv_spl06.o
    0x0800ce60   0x0800ce60   0x000003c8   Code   RO         1403    .text               drv_w25qxx.o
    0x0800d228   0x0800d228   0x000012b8   Code   RO         1428    .text               usbd_stm32f4xx_fs.o
    0x0800e4e0   0x0800e4e0   0x00000714   Code   RO         1455    .text               drv_gps.o
    0x0800ebf4   0x0800ebf4   0x00000390   Code   RO         1484    .text               drv_heating.o
    0x0800ef84   0x0800ef84   0x000002b0   Code   RO         1530    .text               drv_openmv.o
    0x0800f234   0x0800f234   0x00000224   Code   RO         1557    .text               drv_up_flow.o
    0x0800f458   0x0800f458   0x000002a4   Code   RO         1585    .text               drv_bmi088.o
    0x0800f6fc   0x0800f6fc   0x00000460   Code   RO         1612    .text               drv_bsp.o
    0x0800fb5c   0x0800fb5c   0x000001e8   Code   RO         1638    .text               drv_rcin.o
    0x0800fd44   0x0800fd44   0x000001ec   Code   RO         1655    .text               misc.o
    0x0800ff30   0x0800ff30   0x0000107c   Code   RO         1671    .text               stm32f4xx_adc.o
    0x08010fac   0x08010fac   0x000013cc   Code   RO         1703    .text               stm32f4xx_dma.o
    0x08012378   0x08012378   0x0000030c   Code   RO         1719    .text               stm32f4xx_exti.o
    0x08012684   0x08012684   0x00000916   Code   RO         1751    .text               stm32f4xx_gpio.o
    0x08012f9a   0x08012f9a   0x00000002   PAD
    0x08012f9c   0x08012f9c   0x00000d7c   Code   RO         1799    .text               stm32f4xx_rcc.o
    0x08013d18   0x08013d18   0x00000bc8   Code   RO         1817    .text               stm32f4xx_spi.o
    0x080148e0   0x080148e0   0x00003294   Code   RO         1849    .text               stm32f4xx_tim.o
    0x08017b74   0x08017b74   0x00000eb4   Code   RO         1865    .text               stm32f4xx_usart.o
    0x08018a28   0x08018a28   0x00000210   Code   RO         1881    .text               system_stm32f4xx.o
    0x08018c38   0x08018c38   0x00000024   Code   RO         1905    .text               startup_stm32f4xx.o
    0x08018c5c   0x08018c5c   0x00000a30   Code   RO         1910    .text               usbd_core.o
    0x0801968c   0x0801968c   0x000001b0   Code   RO         1951    .text               usbd_core_hid.o
    0x0801983c   0x0801983c   0x00000604   Code   RO         1963    .text               usbd_hid.o
    0x08019e40   0x08019e40   0x0000039c   Code   RO         1979    .text               ano_imu_calibration.o
    0x0801a1dc   0x0801a1dc   0x000001e4   Code   RO         2005    .text               ano_imu_data.o
    0x0801a3c0   0x0801a3c0   0x000000a4   Code   RO         2027    .text               ano_imu_task.o
    0x0801a464   0x0801a464   0x000001bc   Code   RO         2058    .text               ultr.o
    0x0801a620   0x0801a620   0x000002ec   Code   RO         2100    .text               task1.o
    0x0801a90c   0x0801a90c   0x00000062   Code   RO         2187    .text               mc_w.l(ldiv.o)
    0x0801a96e   0x0801a96e   0x00000024   Code   RO         2191    .text               mc_w.l(memcpya.o)
    0x0801a992   0x0801a992   0x0000014e   Code   RO         2504    .text               mf_w.l(dadd.o)
    0x0801aae0   0x0801aae0   0x000000e4   Code   RO         2506    .text               mf_w.l(dmul.o)
    0x0801abc4   0x0801abc4   0x0000002c   Code   RO         2508    .text               mf_w.l(ffltl.o)
    0x0801abf0   0x0801abf0   0x00000022   Code   RO         2510    .text               mf_w.l(dflti.o)
    0x0801ac12   0x0801ac12   0x0000003e   Code   RO         2512    .text               mf_w.l(dfixi.o)
    0x0801ac50   0x0801ac50   0x00000026   Code   RO         2514    .text               mf_w.l(f2d.o)
    0x0801ac76   0x0801ac76   0x00000002   PAD
    0x0801ac78   0x0801ac78   0x00000030   Code   RO         2516    .text               mf_w.l(cdcmple.o)
    0x0801aca8   0x0801aca8   0x00000030   Code   RO         2518    .text               mf_w.l(cdrcmple.o)
    0x0801acd8   0x0801acd8   0x00000038   Code   RO         2520    .text               mf_w.l(d2f.o)
    0x0801ad10   0x0801ad10   0x00000062   Code   RO         2541    .text               mc_w.l(uldiv.o)
    0x0801ad72   0x0801ad72   0x0000001e   Code   RO         2543    .text               mc_w.l(llshl.o)
    0x0801ad90   0x0801ad90   0x00000020   Code   RO         2545    .text               mc_w.l(llushr.o)
    0x0801adb0   0x0801adb0   0x00000024   Code   RO         2547    .text               mc_w.l(llsshr.o)
    0x0801add4   0x0801add4   0x00000000   Code   RO         2557    .text               mc_w.l(iusefp.o)
    0x0801add4   0x0801add4   0x0000006e   Code   RO         2558    .text               mf_w.l(fepilogue.o)
    0x0801ae42   0x0801ae42   0x000000ba   Code   RO         2560    .text               mf_w.l(depilogue.o)
    0x0801aefc   0x0801aefc   0x00000024   Code   RO         2568    .text               mc_w.l(init.o)
    0x0801af20   0x0801af20   0x00000056   Code   RO         2587    .text               mc_w.l(__dczerorl2.o)
    0x0801af76   0x0801af76   0x0000000e   Code   RO         2581    i.__scatterload_copy  mc_w.l(handlers.o)
    0x0801af84   0x0801af84   0x00000002   Code   RO         2582    i.__scatterload_null  mc_w.l(handlers.o)
    0x0801af86   0x0801af86   0x0000000e   Code   RO         2583    i.__scatterload_zeroinit  mc_w.l(handlers.o)
    0x0801af94   0x0801af94   0x00000174   Data   RO          233    .constdata          usb_config.o
    0x0801b108   0x0801b108   0x00000018   Data   RO          459    .constdata          ano_dt.o
    0x0801b120   0x0801b120   0x00000404   Data   RO          802    .constdata          ano_math.o
    0x0801b524   0x0801b524   0x0000008f   Data   RO         1457    .constdata          drv_gps.o
    0x0801b5b3   0x0801b5b3   0x00000142   Data   RO         1559    .constdata          drv_up_flow.o
    0x0801b6f5   0x0801b6f5   0x00000003   PAD
    0x0801b6f8   0x0801b6f8   0x000000e0   Data   RO         2102    .constdata          task1.o
    0x0801b7d8   0x0801b7d8   0x00000020   Data   RO         2579    Region$$Table       anon$$obj.o


    Execution Region RW_IRAM1 (Exec base: 0x20000000, Load base: 0x0801b7f8, Size: 0x00003c50, Max: 0x00020000, ABSOLUTE, COMPRESSED[0x0000007c])

    Exec Addr    Load Addr    Size         Type   Attr      Idx    E Section Name        Object

    0x20000000   COMPRESSED   0x00000004   Data   RW          156    .data               ano_usb.o
    0x20000004   COMPRESSED   0x00000009   Data   RW          234    .data               usb_config.o
    0x2000000d   COMPRESSED   0x00000003   PAD
    0x20000010   COMPRESSED   0x00000054   Data   RW          277    .data               ano_scheduler.o
    0x20000064   COMPRESSED   0x00000001   Data   RW          400    .data               bsp_init.o
    0x20000065   COMPRESSED   0x00000001   PAD
    0x20000066   COMPRESSED   0x00000002   Data   RW          460    .data               ano_dt.o
    0x20000068   COMPRESSED   0x00000015   Data   RW          489    .data               ano_rc.o
    0x2000007d   COMPRESSED   0x00000003   Data   RW          513    .data               ano_of.o
    0x20000080   COMPRESSED   0x00000005   Data   RW          536    .data               ano_flyctrl.o
    0x20000085   COMPRESSED   0x00000001   PAD
    0x20000086   COMPRESSED   0x00000007   Data   RW          563    .data               ano_uwb.o
    0x2000008d   COMPRESSED   0x00000003   Data   RW          607    .data               ano_opmv_ctrl.o
    0x20000090   COMPRESSED   0x00000014   Data   RW          634    .data               ano_opmv_cbtracking_ctrl.o
    0x200000a4   COMPRESSED   0x0000001c   Data   RW          657    .data               ano_opmv_linetracking_ctrl.o
    0x200000c0   COMPRESSED   0x00000030   Data   RW          680    .data               ano_of_decofusion.o
    0x200000f0   COMPRESSED   0x0000000c   Data   RW          732    .data               ano_filter.o
    0x200000fc   COMPRESSED   0x00000158   Data   RW          760    .data               ano_imu.o
    0x20000254   COMPRESSED   0x00000019   Data   RW          822    .data               ano_motioncal.o
    0x2000026d   COMPRESSED   0x00000003   PAD
    0x20000270   COMPRESSED   0x0000000e   Data   RW          910    .data               ano_altctrl.o
    0x2000027e   COMPRESSED   0x00000002   PAD
    0x20000280   COMPRESSED   0x00000010   Data   RW          953    .data               ano_attctrl.o
    0x20000290   COMPRESSED   0x00000059   Data   RW          984    .data               ano_flightctrl.o
    0x200002e9   COMPRESSED   0x00000003   PAD
    0x200002ec   COMPRESSED   0x00000036   Data   RW         1029    .data               ano_locctrl.o
    0x20000322   COMPRESSED   0x00000002   PAD
    0x20000324   COMPRESSED   0x00000020   Data   RW         1052    .data               ano_magprocess.o
    0x20000344   COMPRESSED   0x00000014   Data   RW         1079    .data               ano_motorctrl.o
    0x20000358   COMPRESSED   0x0000000c   Data   RW         1109    .data               ano_power.o
    0x20000364   COMPRESSED   0x00000041   Data   RW         1131    .data               ano_flightdatacal.o
    0x200003a5   COMPRESSED   0x00000003   PAD
    0x200003a8   COMPRESSED   0x00000027   Data   RW         1156    .data               drv_led.o
    0x200003cf   COMPRESSED   0x00000001   PAD
    0x200003d0   COMPRESSED   0x00000002   Data   RW         1186    .data               drv_adc.o
    0x200003d2   COMPRESSED   0x00000004   Data   RW         1209    .data               ano_parameter.o
    0x200003d6   COMPRESSED   0x00000002   PAD
    0x200003d8   COMPRESSED   0x00000008   Data   RW         1269    .data               drv_time.o
    0x200003e0   COMPRESSED   0x00000039   Data   RW         1300    .data               drv_usart.o
    0x20000419   COMPRESSED   0x00000006   Data   RW         1335    .data               drv_ak8975.o
    0x2000041f   COMPRESSED   0x00000001   PAD
    0x20000420   COMPRESSED   0x0000000b   Data   RW         1382    .data               drv_spl06.o
    0x2000042b   COMPRESSED   0x00000001   PAD
    0x2000042c   COMPRESSED   0x00000030   Data   RW         1430    .data               usbd_stm32f4xx_fs.o
    0x2000045c   COMPRESSED   0x00000019   Data   RW         1458    .data               drv_gps.o
    0x20000475   COMPRESSED   0x00000003   PAD
    0x20000478   COMPRESSED   0x00000013   Data   RW         1486    .data               drv_heating.o
    0x2000048b   COMPRESSED   0x00000001   PAD
    0x2000048c   COMPRESSED   0x00000006   Data   RW         1509    .data               drv_laser.o
    0x20000492   COMPRESSED   0x00000004   Data   RW         1532    .data               drv_openmv.o
    0x20000496   COMPRESSED   0x00000004   Data   RW         1560    .data               drv_up_flow.o
    0x2000049a   COMPRESSED   0x00000002   Data   RW         1587    .data               drv_bmi088.o
    0x2000049c   COMPRESSED   0x0000000e   Data   RW         1614    .data               drv_bsp.o
    0x200004aa   COMPRESSED   0x00000004   Data   RW         1639    .data               drv_rcin.o
    0x200004ae   COMPRESSED   0x00000010   Data   RW         1800    .data               stm32f4xx_rcc.o
    0x200004be   COMPRESSED   0x00000002   PAD
    0x200004c0   COMPRESSED   0x00000014   Data   RW         1882    .data               system_stm32f4xx.o
    0x200004d4   COMPRESSED   0x00000024   Data   RW         1911    .data               usbd_core.o
    0x200004f8   COMPRESSED   0x00000027   Data   RW         1964    .data               usbd_hid.o
    0x2000051f   COMPRESSED   0x00000001   PAD
    0x20000520   COMPRESSED   0x00000018   Data   RW         1981    .data               ano_imu_calibration.o
    0x20000538   COMPRESSED   0x00000008   Data   RW         2060    .data               ultr.o
    0x20000540   COMPRESSED   0x0000003d   Data   RW         2103    .data               task1.o
    0x2000057d   COMPRESSED   0x00000003   PAD
    0x20000580        -       0x00000140   Zero   RW          155    .bss                ano_usb.o
    0x200006c0        -       0x00000320   Zero   RW          232    .bss                usb_config.o
    0x200009e0        -       0x00000024   Zero   RW          276    .bss                ano_scheduler.o
    0x20000a04        -       0x00000448   Zero   RW          458    .bss                ano_dt.o
    0x20000e4c        -       0x00000010   Zero   RW          488    .bss                ano_rc.o
    0x20000e5c        -       0x0000007c   Zero   RW          512    .bss                ano_of.o
    0x20000ed8        -       0x00000054   Zero   RW          535    .bss                ano_flyctrl.o
    0x20000f2c        -       0x0000023c   Zero   RW          562    .bss                ano_uwb.o
    0x20001168        -       0x00000020   Zero   RW          585    .bss                ano_programctrl_user.o
    0x20001188        -       0x00000044   Zero   RW          633    .bss                ano_opmv_cbtracking_ctrl.o
    0x200011cc        -       0x00000020   Zero   RW          656    .bss                ano_opmv_linetracking_ctrl.o
    0x200011ec        -       0x00000054   Zero   RW          679    .bss                ano_of_decofusion.o
    0x20001240        -       0x00000041   Zero   RW          706    .bss                ano_fcdata.o
    0x20001281   COMPRESSED   0x00000003   PAD
    0x20001284        -       0x00000054   Zero   RW          759    .bss                ano_imu.o
    0x200012d8        -       0x0000004c   Zero   RW          821    .bss                ano_motioncal.o
    0x20001324        -       0x00000108   Zero   RW          887    .bss                ano_sensor_basic.o
    0x2000142c        -       0x00000080   Zero   RW          909    .bss                ano_altctrl.o
    0x200014ac        -       0x000001e8   Zero   RW          952    .bss                ano_attctrl.o
    0x20001694        -       0x00000034   Zero   RW          983    .bss                ano_flightctrl.o
    0x200016c8        -       0x00000160   Zero   RW         1028    .bss                ano_locctrl.o
    0x20001828        -       0x00000010   Zero   RW         1078    .bss                ano_motorctrl.o
    0x20001838        -       0x0000000f   Zero   RW         1155    .bss                drv_led.o
    0x20001847   COMPRESSED   0x00000001   PAD
    0x20001848        -       0x00001000   Zero   RW         1208    .bss                ano_parameter.o
    0x20002848        -       0x00000702   Zero   RW         1299    .bss                drv_usart.o
    0x20002f4a   COMPRESSED   0x00000002   PAD
    0x20002f4c        -       0x00000040   Zero   RW         1381    .bss                drv_spl06.o
    0x20002f8c        -       0x0000000c   Zero   RW         1404    .bss                drv_w25qxx.o
    0x20002f98        -       0x00000070   Zero   RW         1429    .bss                usbd_stm32f4xx_fs.o
    0x20003008        -       0x000000df   Zero   RW         1456    .bss                drv_gps.o
    0x200030e7   COMPRESSED   0x00000001   PAD
    0x200030e8        -       0x0000000c   Zero   RW         1485    .bss                drv_heating.o
    0x200030f4        -       0x000000a4   Zero   RW         1531    .bss                drv_openmv.o
    0x20003198        -       0x0000001c   Zero   RW         1558    .bss                drv_up_flow.o
    0x200031b4        -       0x0000000e   Zero   RW         1586    .bss                drv_bmi088.o
    0x200031c2        -       0x0000006b   Zero   RW         1613    .bss                drv_bsp.o
    0x2000322d   COMPRESSED   0x00000003   PAD
    0x20003230        -       0x00000048   Zero   RW         1980    .bss                ano_imu_calibration.o
    0x20003278        -       0x000000a8   Zero   RW         2006    .bss                ano_imu_data.o
    0x20003320        -       0x0000000a   Zero   RW         2059    .bss                ultr.o
    0x2000332a   COMPRESSED   0x00000002   PAD
    0x2000332c        -       0x00000120   Zero   RW         2101    .bss                task1.o
    0x2000344c   COMPRESSED   0x00000004   PAD
    0x20003450        -       0x00000800   Zero   RW         1902    STACK               startup_stm32f4xx.o


==============================================================================

Image component sizes


      Code (inc. data)   RO Data    RW Data    ZI Data      Debug   Object Name

      1492        138          0         14        128       2268   ano_altctrl.o
      2644        172          0         16        488       4569   ano_attctrl.o
      4544        186         24          2       1096      10917   ano_dt.o
        40         10          0          0         65       2979   ano_fcdata.o
      2116         26          0         12          0       7559   ano_filter.o
      3756        366          0         89         52       8386   ano_flightctrl.o
       872        140          0         65          0       3155   ano_flightdatacal.o
      2444        382          0          5         84       3210   ano_flyctrl.o
      2984        184          0        344         84       7190   ano_imu.o
       924         64          0         24         72       3435   ano_imu_calibration.o
       484         20          0          0        168       3116   ano_imu_data.o
       164         30          0          0          0        663   ano_imu_task.o
      3552        294          0         54        352       4487   ano_locctrl.o
      1200         92          0         32          0       3279   ano_magprocess.o
      2260        146       1028          0          0       8216   ano_math.o
       508         64          0         25         76       1667   ano_motioncal.o
       500         34          0         20         16       2043   ano_motorctrl.o
       844         38          0          3        124       2986   ano_of.o
      1476        124          0         48         84       4527   ano_of_decofusion.o
      1144         82          0         20         68       3642   ano_opmv_cbtracking_ctrl.o
       244         32          0          3          0       1203   ano_opmv_ctrl.o
      1388        112          0         28         32       3884   ano_opmv_linetracking_ctrl.o
      5256        316          0          4       4096       8411   ano_parameter.o
       288          4          0          0          0       1800   ano_pid.o
       540         62          0         12          0        946   ano_power.o
       208         26          0          0         32       1891   ano_programctrl_user.o
      1396        178          0         21         16       4616   ano_rc.o
       524         32          0         84         36       4501   ano_scheduler.o
       532         46          0          0        264       3174   ano_sensor_basic.o
       588         24          0          4        320      15202   ano_usb.o
       732         48          0          7        572       2764   ano_uwb.o
       288         36          0          1          0       1234   bsp_init.o
       292         18          0          2          0       1345   drv_adc.o
       260         10          0          6          0       1787   drv_ak8975.o
       676         28          0          2         14       3861   drv_bmi088.o
      1120         54          0         14        107       3181   drv_bsp.o
      1812        102        143         25        223       5503   drv_gps.o
       912        174          0         19         12       2273   drv_heating.o
         0          0          0          6          0       1125   drv_laser.o
      1620         72          0         39         15       4671   drv_led.o
       688         26          0          4        164       3393   drv_openmv.o
       796         38          0          0          0       1790   drv_pwm_out.o
       488         22          0          4          0       1384   drv_rcin.o
       304         10          0          0          0       1683   drv_spi.o
      1792         58          0         11         64       5625   drv_spl06.o
       440         18          0          8          0      21782   drv_time.o
       548         28        322          4         28       2027   drv_up_flow.o
      2360        186          0         57       1794       8119   drv_usart.o
       968         14          0          0         12       5197   drv_w25qxx.o
        28          4          0          0          0       1061   main.o
       492         74          0          0          0       2125   misc.o
        36          8        392          0       2048        884   startup_stm32f4xx.o
      4220        148          0          0          0      13434   stm32f4xx_adc.o
      5068        352          0          0          0       9045   stm32f4xx_dma.o
       780         70          0          0          0       2803   stm32f4xx_exti.o
      2326        132          0          0          0       5501   stm32f4xx_gpio.o
        84          0          0          0          0     306148   stm32f4xx_it.o
      3452        262          0         16          0      13595   stm32f4xx_rcc.o
      3016        118          0          0          0       8629   stm32f4xx_spi.o
     12948        670          0          0          0      31292   stm32f4xx_tim.o
      3764        164          0          0          0      10180   stm32f4xx_usart.o
       528         46          0         20          0       1991   system_stm32f4xx.o
       748         88        224         61        288       3745   task1.o
       444         22          0          8         10       1489   ultr.o
        82          0        372          9        800      15622   usb_config.o
      2608        202          0         36          0       7860   usbd_core.o
       432         68          0          0          0       1712   usbd_core_hid.o
      1540        184          0         39          0       5971   usbd_hid.o
      4792        220          0         48        112      27293   usbd_stm32f4xx_fs.o

    ----------------------------------------------------------------------
    108400       7198       2540       1408      14032     683046   Object Totals
         0          0         32          0          0          0   (incl. Generated)
         4          0          3         33         16          0   (incl. Padding)

    ----------------------------------------------------------------------

      Code (inc. data)   RO Data    RW Data    ZI Data      Debug   Library Member Name

        86          0          0          0          0          0   __dczerorl2.o
         0          0          0          0          0          0   entry.o
         0          0          0          0          0          0   entry10a.o
         0          0          0          0          0          0   entry11a.o
         8          4          0          0          0          0   entry2.o
         4          0          0          0          0          0   entry5.o
         0          0          0          0          0          0   entry7b.o
         0          0          0          0          0          0   entry8b.o
         8          4          0          0          0          0   entry9a.o
        30          0          0          0          0          0   handlers.o
        36          8          0          0          0         68   init.o
         0          0          0          0          0          0   iusefp.o
        98          0          0          0          0         84   ldiv.o
        30          0          0          0          0         68   llshl.o
        36          0          0          0          0         68   llsshr.o
        32          0          0          0          0         68   llushr.o
        36          0          0          0          0         68   memcpya.o
        98          0          0          0          0         92   uldiv.o
        48          0          0          0          0         68   cdcmple.o
        48          0          0          0          0         68   cdrcmple.o
        56          0          0          0          0         88   d2f.o
       334          0          0          0          0        148   dadd.o
       186          0          0          0          0        176   depilogue.o
        62          0          0          0          0         80   dfixi.o
        34          0          0          0          0         76   dflti.o
       228          0          0          0          0         96   dmul.o
        38          0          0          0          0         68   f2d.o
       110          0          0          0          0        168   fepilogue.o
        44          0          0          0          0         92   ffltl.o

    ----------------------------------------------------------------------
      1692         16          0          0          0       1644   Library Totals
         2          0          0          0          0          0   (incl. Padding)

    ----------------------------------------------------------------------

      Code (inc. data)   RO Data    RW Data    ZI Data      Debug   Library Name

       502         16          0          0          0        516   mc_w.l
      1188          0          0          0          0       1128   mf_w.l

    ----------------------------------------------------------------------
      1692         16          0          0          0       1644   Library Totals

    ----------------------------------------------------------------------

==============================================================================


      Code (inc. data)   RO Data    RW Data    ZI Data      Debug   

    110092       7214       2540       1408      14032     670994   Grand Totals
    110092       7214       2540        124      14032     670994   ELF Image Totals (compressed)
    110092       7214       2540        124          0          0   ROM Totals

==============================================================================

    Total RO  Size (Code + RO Data)               112632 ( 109.99kB)
    Total RW  Size (RW Data + ZI Data)             15440 (  15.08kB)
    Total ROM Size (Code + RO Data + RW Data)     112756 ( 110.11kB)

==============================================================================

